---
triple:          'arm64-apple-darwin'
binary-path:     ms3
relocations:
  - { offsetInCU: 0x3E, offset: 0x3E, size: 0x8, addend: 0x0, symName: __ZN6seneca13CustomerOrder12m_widthFieldE, symObjAddr: 0x1D848, symBinAddr: 0x100018000, symSize: 0x0 }
  - { offsetInCU: 0x3FB1, offset: 0x3FB1, size: 0x8, addend: 0x0, symName: __ZNSt3__124__put_character_sequenceB8ue170006IcNS_11char_traitsIcEEEERNS_13basic_ostreamIT_T0_EES7_PKS4_m, symObjAddr: 0x1BE0, symBinAddr: 0x100004F58, symSize: 0x1EC }
  - { offsetInCU: 0x4C89, offset: 0x4C89, size: 0x8, addend: 0x0, symName: __ZNSt3__13maxB8ue170006ImEERKT_S3_S3_, symObjAddr: 0x418, symBinAddr: 0x100003790, symSize: 0x2C }
  - { offsetInCU: 0x4CCC, offset: 0x4CCC, size: 0x8, addend: 0x0, symName: __ZNSt3__1eqB8ue170006INS_9allocatorIcEEEEbRKNS_12basic_stringIcNS_11char_traitsIcEET_EES9_, symObjAddr: 0x994, symBinAddr: 0x100003D0C, symSize: 0x148 }
  - { offsetInCU: 0x4D3F, offset: 0x4D3F, size: 0x8, addend: 0x0, symName: __ZNSt3__1lsB8ue170006INS_11char_traitsIcEEEERNS_13basic_ostreamIcT_EES6_PKc, symObjAddr: 0xD28, symBinAddr: 0x1000040A0, symSize: 0x48 }
  - { offsetInCU: 0x4D85, offset: 0x4D85, size: 0x8, addend: 0x0, symName: __ZNSt3__1lsB8ue170006IcNS_11char_traitsIcEENS_9allocatorIcEEEERNS_13basic_ostreamIT_T0_EES9_RKNS_12basic_stringIS6_S7_T1_EE, symObjAddr: 0xD70, symBinAddr: 0x1000040E8, symSize: 0x4C }
  - { offsetInCU: 0x4DDD, offset: 0x4DDD, size: 0x8, addend: 0x0, symName: __ZNSt3__14endlB8ue170006IcNS_11char_traitsIcEEEERNS_13basic_ostreamIT_T0_EES7_, symObjAddr: 0xF90, symBinAddr: 0x100004308, symSize: 0x58 }
  - { offsetInCU: 0x4E1D, offset: 0x4E1D, size: 0x8, addend: 0x0, symName: __ZNSt3__1lsB8ue170006INS_11char_traitsIcEEEERNS_13basic_ostreamIcT_EES6_RKNS_8__iom_t4IcEE, symObjAddr: 0xFE8, symBinAddr: 0x100004360, symSize: 0x40 }
  - { offsetInCU: 0x4E60, offset: 0x4E60, size: 0x8, addend: 0x0, symName: __ZNSt3__1lsB8ue170006IcNS_11char_traitsIcEEEERNS_13basic_ostreamIT_T0_EES7_RKNS_8__iom_t6E, symObjAddr: 0x1028, symBinAddr: 0x1000043A0, symSize: 0x40 }
  - { offsetInCU: 0x4EAF, offset: 0x4EAF, size: 0x8, addend: 0x0, symName: __ZNSt3__1lsB8ue170006INS_11char_traitsIcEEEERNS_13basic_ostreamIcT_EES6_c, symObjAddr: 0x1068, symBinAddr: 0x1000043E0, symSize: 0x34 }
  - { offsetInCU: 0x4EF5, offset: 0x4EF5, size: 0x8, addend: 0x0, symName: __ZNSt3__14setwB8ue170006Ei, symObjAddr: 0x109C, symBinAddr: 0x100004414, symSize: 0x2C }
  - { offsetInCU: 0x4F23, offset: 0x4F23, size: 0x8, addend: 0x0, symName: __ZNSt3__17setfillB8ue170006IcEENS_8__iom_t4IT_EES2_, symObjAddr: 0x10C8, symBinAddr: 0x100004440, symSize: 0x2C }
  - { offsetInCU: 0x4F58, offset: 0x4F58, size: 0x8, addend: 0x0, symName: __ZNSt3__14leftB8ue170006ERNS_8ios_baseE, symObjAddr: 0x1134, symBinAddr: 0x1000044AC, symSize: 0x30 }
  - { offsetInCU: 0x4F86, offset: 0x4F86, size: 0x8, addend: 0x0, symName: __ZNSt3__13maxB8ue170006ImNS_6__lessIvvEEEERKT_S5_S5_T0_, symObjAddr: 0x11BC, symBinAddr: 0x100004534, symSize: 0x54 }
  - { offsetInCU: 0x5025, offset: 0x5025, size: 0x8, addend: 0x0, symName: __ZNSt3__119__libcpp_deallocateB8ue170006EPvmm, symObjAddr: 0x1824, symBinAddr: 0x100004B9C, symSize: 0x60 }
  - { offsetInCU: 0x508A, offset: 0x508A, size: 0x8, addend: 0x0, symName: __ZNSt3__124__is_overaligned_for_newB8ue170006Em, symObjAddr: 0x1884, symBinAddr: 0x100004BFC, symSize: 0x20 }
  - { offsetInCU: 0x50B8, offset: 0x50B8, size: 0x8, addend: 0x0, symName: __ZNSt3__127__do_deallocate_handle_sizeB8ue170006IJSt11align_val_tEEEvPvmDpT_, symObjAddr: 0x18A4, symBinAddr: 0x100004C1C, symSize: 0x30 }
  - { offsetInCU: 0x510B, offset: 0x510B, size: 0x8, addend: 0x0, symName: __ZNSt3__127__do_deallocate_handle_sizeB8ue170006IJEEEvPvmDpT_, symObjAddr: 0x18D4, symBinAddr: 0x100004C4C, symSize: 0x28 }
  - { offsetInCU: 0x5149, offset: 0x5149, size: 0x8, addend: 0x0, symName: __ZNSt3__124__libcpp_operator_deleteB8ue170006IJPvSt11align_val_tEEEvDpT_, symObjAddr: 0x18FC, symBinAddr: 0x100004C74, symSize: 0x2C }
  - { offsetInCU: 0x5192, offset: 0x5192, size: 0x8, addend: 0x0, symName: __ZNSt3__124__libcpp_operator_deleteB8ue170006IJPvEEEvDpT_, symObjAddr: 0x1928, symBinAddr: 0x100004CA0, symSize: 0x24 }
  - { offsetInCU: 0x51FA, offset: 0x51FA, size: 0x8, addend: 0x0, symName: __ZNSt3__112__to_addressB8ue170006IKcEEPT_S3_, symObjAddr: 0x1B14, symBinAddr: 0x100004E8C, symSize: 0x14 }
  - { offsetInCU: 0x5262, offset: 0x5262, size: 0x8, addend: 0x0, symName: __ZNSt3__116__pad_and_outputB8ue170006IcNS_11char_traitsIcEEEENS_19ostreambuf_iteratorIT_T0_EES6_PKS4_S8_S8_RNS_8ios_baseES4_, symObjAddr: 0x1E1C, symBinAddr: 0x100005194, symSize: 0x240 }
  - { offsetInCU: 0x5331, offset: 0x5331, size: 0x8, addend: 0x0, symName: __ZNSt3__112__to_addressB8ue170006IcEEPT_S2_, symObjAddr: 0x228C, symBinAddr: 0x100005604, symSize: 0x14 }
  - { offsetInCU: 0x5366, offset: 0x5366, size: 0x8, addend: 0x0, symName: __ZNSt3__19use_facetB8ue170006INS_5ctypeIcEEEERKT_RKNS_6localeE, symObjAddr: 0x2438, symBinAddr: 0x1000057B0, symSize: 0x2C }
  - { offsetInCU: 0x5833, offset: 0x5833, size: 0x8, addend: 0x0, symName: __ZNSt3__118__constexpr_strlenB8ue170006EPKc, symObjAddr: 0x24D0, symBinAddr: 0x100005848, symSize: 0x24 }
  - { offsetInCU: 0x7F57, offset: 0x7F57, size: 0x8, addend: 0x0, symName: __ZN6seneca13CustomerOrderC2Ev, symObjAddr: 0x0, symBinAddr: 0x100003378, symSize: 0x40 }
  - { offsetInCU: 0x7F81, offset: 0x7F81, size: 0x8, addend: 0x0, symName: __ZNSt3__112basic_stringIcNS_11char_traitsIcEENS_9allocatorIcEEEC1B8ue170006Ev, symObjAddr: 0x40, symBinAddr: 0x1000033B8, symSize: 0x2C }
  - { offsetInCU: 0x7FA9, offset: 0x7FA9, size: 0x8, addend: 0x0, symName: __ZN6seneca13CustomerOrderC1Ev, symObjAddr: 0x6C, symBinAddr: 0x1000033E4, symSize: 0x2C }
  - { offsetInCU: 0x7FD3, offset: 0x7FD3, size: 0x8, addend: 0x0, symName: __ZN6seneca13CustomerOrderC2ERKNSt3__112basic_stringIcNS1_11char_traitsIcEENS1_9allocatorIcEEEE, symObjAddr: 0x98, symBinAddr: 0x100003410, symSize: 0x2EC }
  - { offsetInCU: 0x8086, offset: 0x8086, size: 0x8, addend: 0x0, symName: __ZN6seneca9UtilitiesC1Ev, symObjAddr: 0x384, symBinAddr: 0x1000036FC, symSize: 0x2C }
  - { offsetInCU: 0x80B1, offset: 0x80B1, size: 0x8, addend: 0x0, symName: __ZNSt3__112basic_stringIcNS_11char_traitsIcEENS_9allocatorIcEEEaSB8ue170006EOS5_, symObjAddr: 0x3B0, symBinAddr: 0x100003728, symSize: 0x34 }
  - { offsetInCU: 0x80E4, offset: 0x80E4, size: 0x8, addend: 0x0, symName: __ZN6seneca13CustomerOrder4ItemC1ERKNSt3__112basic_stringIcNS2_11char_traitsIcEENS2_9allocatorIcEEEE, symObjAddr: 0x3E4, symBinAddr: 0x10000375C, symSize: 0x34 }
  - { offsetInCU: 0x811B, offset: 0x811B, size: 0x8, addend: 0x0, symName: __ZNK6seneca9Utilities13getFieldWidthEv, symObjAddr: 0x444, symBinAddr: 0x1000037BC, symSize: 0x18 }
  - { offsetInCU: 0x813F, offset: 0x813F, size: 0x8, addend: 0x0, symName: __ZN6seneca13CustomerOrderC1ERKNSt3__112basic_stringIcNS1_11char_traitsIcEENS1_9allocatorIcEEEE, symObjAddr: 0x45C, symBinAddr: 0x1000037D4, symSize: 0x34 }
  - { offsetInCU: 0x8177, offset: 0x8177, size: 0x8, addend: 0x0, symName: __ZN6seneca13CustomerOrderC2EOS0_, symObjAddr: 0x490, symBinAddr: 0x100003808, symSize: 0x50 }
  - { offsetInCU: 0x81B0, offset: 0x81B0, size: 0x8, addend: 0x0, symName: __ZN6seneca13CustomerOrderaSEOS0_, symObjAddr: 0x4E0, symBinAddr: 0x100003858, symSize: 0x158 }
  - { offsetInCU: 0x8200, offset: 0x8200, size: 0x8, addend: 0x0, symName: __ZN6seneca13CustomerOrderC1EOS0_, symObjAddr: 0x638, symBinAddr: 0x1000039B0, symSize: 0x34 }
  - { offsetInCU: 0x8238, offset: 0x8238, size: 0x8, addend: 0x0, symName: __ZN6seneca13CustomerOrder4ItemD1Ev, symObjAddr: 0x66C, symBinAddr: 0x1000039E4, symSize: 0x2C }
  - { offsetInCU: 0x8263, offset: 0x8263, size: 0x8, addend: 0x0, symName: __ZNSt3__112basic_stringIcNS_11char_traitsIcEENS_9allocatorIcEEE5clearB8ue170006Ev, symObjAddr: 0x698, symBinAddr: 0x100003A10, symSize: 0x78 }
  - { offsetInCU: 0x8289, offset: 0x8289, size: 0x8, addend: 0x0, symName: __ZN6seneca13CustomerOrderD2Ev, symObjAddr: 0x710, symBinAddr: 0x100003A88, symSize: 0xF0 }
  - { offsetInCU: 0x82CF, offset: 0x82CF, size: 0x8, addend: 0x0, symName: __ZN6seneca13CustomerOrderD1Ev, symObjAddr: 0x800, symBinAddr: 0x100003B78, symSize: 0x2C }
  - { offsetInCU: 0x82FA, offset: 0x82FA, size: 0x8, addend: 0x0, symName: __ZNK6seneca13CustomerOrder13isOrderFilledEv, symObjAddr: 0x82C, symBinAddr: 0x100003BA4, symSize: 0x9C }
  - { offsetInCU: 0x833D, offset: 0x833D, size: 0x8, addend: 0x0, symName: __ZNK6seneca13CustomerOrder12isItemFilledERKNSt3__112basic_stringIcNS1_11char_traitsIcEENS1_9allocatorIcEEEE, symObjAddr: 0x8C8, symBinAddr: 0x100003C40, symSize: 0xCC }
  - { offsetInCU: 0x838E, offset: 0x838E, size: 0x8, addend: 0x0, symName: __ZN6seneca13CustomerOrder8fillItemERNS_7StationERNSt3__113basic_ostreamIcNS3_11char_traitsIcEEEE, symObjAddr: 0xADC, symBinAddr: 0x100003E54, symSize: 0x1FC }
  - { offsetInCU: 0x83ED, offset: 0x83ED, size: 0x8, addend: 0x0, symName: __ZNK6seneca7Station11getItemNameEv, symObjAddr: 0xCD8, symBinAddr: 0x100004050, symSize: 0x18 }
  - { offsetInCU: 0x8412, offset: 0x8412, size: 0x8, addend: 0x0, symName: __ZNK6seneca7Station11getQuantityEv, symObjAddr: 0xCF0, symBinAddr: 0x100004068, symSize: 0x18 }
  - { offsetInCU: 0x8437, offset: 0x8437, size: 0x8, addend: 0x0, symName: __ZN6seneca7Station19getNextSerialNumberEv, symObjAddr: 0xD08, symBinAddr: 0x100004080, symSize: 0x20 }
  - { offsetInCU: 0x845C, offset: 0x845C, size: 0x8, addend: 0x0, symName: __ZNK6seneca13CustomerOrder7displayERNSt3__113basic_ostreamIcNS1_11char_traitsIcEEEE, symObjAddr: 0xDBC, symBinAddr: 0x100004134, symSize: 0x1A8 }
  - { offsetInCU: 0x84AD, offset: 0x84AD, size: 0x8, addend: 0x0, symName: __ZNSt3__113basic_ostreamIcNS_11char_traitsIcEEElsB8ue170006EPFRS3_S4_E, symObjAddr: 0xF64, symBinAddr: 0x1000042DC, symSize: 0x2C }
  - { offsetInCU: 0x84E0, offset: 0x84E0, size: 0x8, addend: 0x0, symName: __ZNSt3__113basic_ostreamIcNS_11char_traitsIcEEElsB8ue170006EPFRNS_8ios_baseES5_E, symObjAddr: 0x10F4, symBinAddr: 0x10000446C, symSize: 0x40 }
  - { offsetInCU: 0x8513, offset: 0x8513, size: 0x8, addend: 0x0, symName: __ZN6seneca9UtilitiesC2Ev, symObjAddr: 0x1164, symBinAddr: 0x1000044DC, symSize: 0x1C }
  - { offsetInCU: 0x853D, offset: 0x853D, size: 0x8, addend: 0x0, symName: __ZN6seneca13CustomerOrder4ItemC2ERKNSt3__112basic_stringIcNS2_11char_traitsIcEENS2_9allocatorIcEEEE, symObjAddr: 0x1180, symBinAddr: 0x1000044F8, symSize: 0x3C }
  - { offsetInCU: 0x8588, offset: 0x8588, size: 0x8, addend: 0x0, symName: __ZNKSt3__16__lessIvvEclB8ue170006ImmEEbRKT_RKT0_, symObjAddr: 0x1210, symBinAddr: 0x100004588, symSize: 0x34 }
  - { offsetInCU: 0x85DA, offset: 0x85DA, size: 0x8, addend: 0x0, symName: __ZN6seneca13CustomerOrder4ItemD2Ev, symObjAddr: 0x1244, symBinAddr: 0x1000045BC, symSize: 0x2C }
  - { offsetInCU: 0x8604, offset: 0x8604, size: 0x8, addend: 0x0, symName: __ZNSt3__18__iom_t6C1B8ue170006Ei, symObjAddr: 0x1270, symBinAddr: 0x1000045E8, symSize: 0x34 }
  - { offsetInCU: 0x863B, offset: 0x863B, size: 0x8, addend: 0x0, symName: __ZNSt3__18__iom_t6C2B8ue170006Ei, symObjAddr: 0x12A4, symBinAddr: 0x10000461C, symSize: 0x20 }
  - { offsetInCU: 0x8672, offset: 0x8672, size: 0x8, addend: 0x0, symName: __ZNSt3__18ios_base4setfB8ue170006Ejj, symObjAddr: 0x12C4, symBinAddr: 0x10000463C, symSize: 0x5C }
  - { offsetInCU: 0x86C6, offset: 0x86C6, size: 0x8, addend: 0x0, symName: __ZNSt3__18ios_base6unsetfB8ue170006Ej, symObjAddr: 0x1320, symBinAddr: 0x100004698, symSize: 0x28 }
  - { offsetInCU: 0x86FB, offset: 0x86FB, size: 0x8, addend: 0x0, symName: __ZNSt3__112basic_stringIcNS_11char_traitsIcEENS_9allocatorIcEEEC2B8ue170006Ev, symObjAddr: 0x1348, symBinAddr: 0x1000046C0, symSize: 0x48 }
  - { offsetInCU: 0x8728, offset: 0x8728, size: 0x8, addend: 0x0, symName: __ZNSt3__117__compressed_pairINS_12basic_stringIcNS_11char_traitsIcEENS_9allocatorIcEEE5__repES5_EC1B8ue170006INS_18__default_init_tagESA_EEOT_OT0_, symObjAddr: 0x1390, symBinAddr: 0x100004708, symSize: 0x3C }
  - { offsetInCU: 0x877F, offset: 0x877F, size: 0x8, addend: 0x0, symName: __ZNSt3__112basic_stringIcNS_11char_traitsIcEENS_9allocatorIcEEE14__default_initB8ue170006Ev, symObjAddr: 0x13D8, symBinAddr: 0x100004750, symSize: 0x40 }
  - { offsetInCU: 0x87A3, offset: 0x87A3, size: 0x8, addend: 0x0, symName: __ZNSt3__117__compressed_pairINS_12basic_stringIcNS_11char_traitsIcEENS_9allocatorIcEEE5__repES5_EC2B8ue170006INS_18__default_init_tagESA_EEOT_OT0_, symObjAddr: 0x1418, symBinAddr: 0x100004790, symSize: 0x3C }
  - { offsetInCU: 0x87FA, offset: 0x87FA, size: 0x8, addend: 0x0, symName: __ZNSt3__122__compressed_pair_elemINS_12basic_stringIcNS_11char_traitsIcEENS_9allocatorIcEEE5__repELi0ELb0EEC2B8ue170006ENS_18__default_init_tagE, symObjAddr: 0x1454, symBinAddr: 0x1000047CC, symSize: 0x14 }
  - { offsetInCU: 0x882D, offset: 0x882D, size: 0x8, addend: 0x0, symName: __ZNSt3__122__compressed_pair_elemINS_9allocatorIcEELi1ELb1EEC2B8ue170006ENS_18__default_init_tagE, symObjAddr: 0x1468, symBinAddr: 0x1000047E0, symSize: 0x2C }
  - { offsetInCU: 0x8860, offset: 0x8860, size: 0x8, addend: 0x0, symName: __ZNSt3__19allocatorIcEC2B8ue170006Ev, symObjAddr: 0x1494, symBinAddr: 0x10000480C, symSize: 0x2C }
  - { offsetInCU: 0x8889, offset: 0x8889, size: 0x8, addend: 0x0, symName: __ZNSt3__116__non_trivial_ifILb1ENS_9allocatorIcEEEC2B8ue170006Ev, symObjAddr: 0x14C0, symBinAddr: 0x100004838, symSize: 0x14 }
  - { offsetInCU: 0x88B2, offset: 0x88B2, size: 0x8, addend: 0x0, symName: __ZNSt3__117__compressed_pairINS_12basic_stringIcNS_11char_traitsIcEENS_9allocatorIcEEE5__repES5_E5firstB8ue170006Ev, symObjAddr: 0x14D4, symBinAddr: 0x10000484C, symSize: 0x24 }
  - { offsetInCU: 0x88D7, offset: 0x88D7, size: 0x8, addend: 0x0, symName: __ZNSt3__122__compressed_pair_elemINS_12basic_stringIcNS_11char_traitsIcEENS_9allocatorIcEEE5__repELi0ELb0EE5__getB8ue170006Ev, symObjAddr: 0x14F8, symBinAddr: 0x100004870, symSize: 0x14 }
  - { offsetInCU: 0x88FC, offset: 0x88FC, size: 0x8, addend: 0x0, symName: __ZNSt3__112basic_stringIcNS_11char_traitsIcEENS_9allocatorIcEEE13__move_assignB8ue170006ERS5_NS_17integral_constantIbLb1EEE, symObjAddr: 0x150C, symBinAddr: 0x100004884, symSize: 0xC8 }
  - { offsetInCU: 0x893E, offset: 0x893E, size: 0x8, addend: 0x0, symName: __ZNKSt3__112basic_stringIcNS_11char_traitsIcEENS_9allocatorIcEEE9__is_longB8ue170006Ev, symObjAddr: 0x15D4, symBinAddr: 0x10000494C, symSize: 0x38 }
  - { offsetInCU: 0x8963, offset: 0x8963, size: 0x8, addend: 0x0, symName: __ZNSt3__116allocator_traitsINS_9allocatorIcEEE10deallocateB8ue170006ERS2_Pcm, symObjAddr: 0x160C, symBinAddr: 0x100004984, symSize: 0x34 }
  - { offsetInCU: 0x89A5, offset: 0x89A5, size: 0x8, addend: 0x0, symName: __ZNSt3__112basic_stringIcNS_11char_traitsIcEENS_9allocatorIcEEE7__allocB8ue170006Ev, symObjAddr: 0x1640, symBinAddr: 0x1000049B8, symSize: 0x24 }
  - { offsetInCU: 0x89CA, offset: 0x89CA, size: 0x8, addend: 0x0, symName: __ZNSt3__112basic_stringIcNS_11char_traitsIcEENS_9allocatorIcEEE18__get_long_pointerB8ue170006Ev, symObjAddr: 0x1664, symBinAddr: 0x1000049DC, symSize: 0x28 }
  - { offsetInCU: 0x89EF, offset: 0x89EF, size: 0x8, addend: 0x0, symName: __ZNKSt3__112basic_stringIcNS_11char_traitsIcEENS_9allocatorIcEEE14__get_long_capB8ue170006Ev, symObjAddr: 0x168C, symBinAddr: 0x100004A04, symSize: 0x30 }
  - { offsetInCU: 0x8A14, offset: 0x8A14, size: 0x8, addend: 0x0, symName: __ZNSt3__112basic_stringIcNS_11char_traitsIcEENS_9allocatorIcEEE19__move_assign_allocB8ue170006ERS5_, symObjAddr: 0x16BC, symBinAddr: 0x100004A34, symSize: 0x2C }
  - { offsetInCU: 0x8A48, offset: 0x8A48, size: 0x8, addend: 0x0, symName: __ZNSt3__112basic_stringIcNS_11char_traitsIcEENS_9allocatorIcEEE16__set_short_sizeB8ue170006Em, symObjAddr: 0x16E8, symBinAddr: 0x100004A60, symSize: 0x78 }
  - { offsetInCU: 0x8A7C, offset: 0x8A7C, size: 0x8, addend: 0x0, symName: __ZNSt3__111char_traitsIcE6assignB8ue170006ERcRKc, symObjAddr: 0x1760, symBinAddr: 0x100004AD8, symSize: 0x24 }
  - { offsetInCU: 0x8AAD, offset: 0x8AAD, size: 0x8, addend: 0x0, symName: __ZNSt3__112basic_stringIcNS_11char_traitsIcEENS_9allocatorIcEEE19__get_short_pointerB8ue170006Ev, symObjAddr: 0x1784, symBinAddr: 0x100004AFC, symSize: 0x28 }
  - { offsetInCU: 0x8AD2, offset: 0x8AD2, size: 0x8, addend: 0x0, symName: __ZNKSt3__117__compressed_pairINS_12basic_stringIcNS_11char_traitsIcEENS_9allocatorIcEEE5__repES5_E5firstB8ue170006Ev, symObjAddr: 0x17AC, symBinAddr: 0x100004B24, symSize: 0x24 }
  - { offsetInCU: 0x8AF7, offset: 0x8AF7, size: 0x8, addend: 0x0, symName: __ZNKSt3__122__compressed_pair_elemINS_12basic_stringIcNS_11char_traitsIcEENS_9allocatorIcEEE5__repELi0ELb0EE5__getB8ue170006Ev, symObjAddr: 0x17D0, symBinAddr: 0x100004B48, symSize: 0x14 }
  - { offsetInCU: 0x8B1C, offset: 0x8B1C, size: 0x8, addend: 0x0, symName: __ZNSt3__19allocatorIcE10deallocateB8ue170006EPcm, symObjAddr: 0x17E4, symBinAddr: 0x100004B5C, symSize: 0x40 }
  - { offsetInCU: 0x8B5D, offset: 0x8B5D, size: 0x8, addend: 0x0, symName: __ZNSt3__117__compressed_pairINS_12basic_stringIcNS_11char_traitsIcEENS_9allocatorIcEEE5__repES5_E6secondB8ue170006Ev, symObjAddr: 0x194C, symBinAddr: 0x100004CC4, symSize: 0x24 }
  - { offsetInCU: 0x8B82, offset: 0x8B82, size: 0x8, addend: 0x0, symName: __ZNSt3__122__compressed_pair_elemINS_9allocatorIcEELi1ELb1EE5__getB8ue170006Ev, symObjAddr: 0x1970, symBinAddr: 0x100004CE8, symSize: 0x14 }
  - { offsetInCU: 0x8BA7, offset: 0x8BA7, size: 0x8, addend: 0x0, symName: __ZNSt3__112basic_stringIcNS_11char_traitsIcEENS_9allocatorIcEEE19__move_assign_allocB8ue170006ERS5_NS_17integral_constantIbLb1EEE, symObjAddr: 0x1984, symBinAddr: 0x100004CFC, symSize: 0x38 }
  - { offsetInCU: 0x8BE7, offset: 0x8BE7, size: 0x8, addend: 0x0, symName: __ZNSt3__114pointer_traitsIPcE10pointer_toB8ue170006ERc, symObjAddr: 0x19BC, symBinAddr: 0x100004D34, symSize: 0x14 }
  - { offsetInCU: 0x8C0A, offset: 0x8C0A, size: 0x8, addend: 0x0, symName: __ZNSt3__112basic_stringIcNS_11char_traitsIcEENS_9allocatorIcEEE15__set_long_sizeB8ue170006Em, symObjAddr: 0x19D0, symBinAddr: 0x100004D48, symSize: 0x38 }
  - { offsetInCU: 0x8C3E, offset: 0x8C3E, size: 0x8, addend: 0x0, symName: __ZNKSt3__112basic_stringIcNS_11char_traitsIcEENS_9allocatorIcEEE4sizeB8ue170006Ev, symObjAddr: 0x1A08, symBinAddr: 0x100004D80, symSize: 0x54 }
  - { offsetInCU: 0x8C63, offset: 0x8C63, size: 0x8, addend: 0x0, symName: __ZNKSt3__112basic_stringIcNS_11char_traitsIcEENS_9allocatorIcEEE4dataB8ue170006Ev, symObjAddr: 0x1A5C, symBinAddr: 0x100004DD4, symSize: 0x28 }
  - { offsetInCU: 0x8C88, offset: 0x8C88, size: 0x8, addend: 0x0, symName: __ZNSt3__111char_traitsIcE7compareB8ue170006EPKcS3_m, symObjAddr: 0x1A84, symBinAddr: 0x100004DFC, symSize: 0x34 }
  - { offsetInCU: 0x8CC7, offset: 0x8CC7, size: 0x8, addend: 0x0, symName: __ZNKSt3__112basic_stringIcNS_11char_traitsIcEENS_9allocatorIcEEE15__get_long_sizeB8ue170006Ev, symObjAddr: 0x1AB8, symBinAddr: 0x100004E30, symSize: 0x28 }
  - { offsetInCU: 0x8CEC, offset: 0x8CEC, size: 0x8, addend: 0x0, symName: __ZNKSt3__112basic_stringIcNS_11char_traitsIcEENS_9allocatorIcEEE16__get_short_sizeB8ue170006Ev, symObjAddr: 0x1AE0, symBinAddr: 0x100004E58, symSize: 0x34 }
  - { offsetInCU: 0x8D11, offset: 0x8D11, size: 0x8, addend: 0x0, symName: __ZNKSt3__112basic_stringIcNS_11char_traitsIcEENS_9allocatorIcEEE13__get_pointerB8ue170006Ev, symObjAddr: 0x1B28, symBinAddr: 0x100004EA0, symSize: 0x54 }
  - { offsetInCU: 0x8D36, offset: 0x8D36, size: 0x8, addend: 0x0, symName: __ZNKSt3__112basic_stringIcNS_11char_traitsIcEENS_9allocatorIcEEE18__get_long_pointerB8ue170006Ev, symObjAddr: 0x1B7C, symBinAddr: 0x100004EF4, symSize: 0x28 }
  - { offsetInCU: 0x8D5B, offset: 0x8D5B, size: 0x8, addend: 0x0, symName: __ZNKSt3__112basic_stringIcNS_11char_traitsIcEENS_9allocatorIcEEE19__get_short_pointerB8ue170006Ev, symObjAddr: 0x1BA4, symBinAddr: 0x100004F1C, symSize: 0x28 }
  - { offsetInCU: 0x8D80, offset: 0x8D80, size: 0x8, addend: 0x0, symName: __ZNSt3__114pointer_traitsIPKcE10pointer_toB8ue170006ERS1_, symObjAddr: 0x1BCC, symBinAddr: 0x100004F44, symSize: 0x14 }
  - { offsetInCU: 0x8DA3, offset: 0x8DA3, size: 0x8, addend: 0x0, symName: __ZNSt3__111char_traitsIcE6lengthB8ue170006EPKc, symObjAddr: 0x1DCC, symBinAddr: 0x100005144, symSize: 0x34 }
  - { offsetInCU: 0x8DE4, offset: 0x8DE4, size: 0x8, addend: 0x0, symName: __ZNKSt3__113basic_ostreamIcNS_11char_traitsIcEEE6sentrycvbB8ue170006Ev, symObjAddr: 0x1E00, symBinAddr: 0x100005178, symSize: 0x1C }
  - { offsetInCU: 0x8E08, offset: 0x8E08, size: 0x8, addend: 0x0, symName: __ZNSt3__119ostreambuf_iteratorIcNS_11char_traitsIcEEEC1B8ue170006ERNS_13basic_ostreamIcS2_EE, symObjAddr: 0x205C, symBinAddr: 0x1000053D4, symSize: 0x34 }
  - { offsetInCU: 0x8E3F, offset: 0x8E3F, size: 0x8, addend: 0x0, symName: __ZNKSt3__18ios_base5flagsB8ue170006Ev, symObjAddr: 0x2090, symBinAddr: 0x100005408, symSize: 0x18 }
  - { offsetInCU: 0x8E66, offset: 0x8E66, size: 0x8, addend: 0x0, symName: __ZNKSt3__19basic_iosIcNS_11char_traitsIcEEE4fillB8ue170006Ev, symObjAddr: 0x20A8, symBinAddr: 0x100005420, symSize: 0x64 }
  - { offsetInCU: 0x8E8D, offset: 0x8E8D, size: 0x8, addend: 0x0, symName: __ZNKSt3__119ostreambuf_iteratorIcNS_11char_traitsIcEEE6failedB8ue170006Ev, symObjAddr: 0x210C, symBinAddr: 0x100005484, symSize: 0x24 }
  - { offsetInCU: 0x8EB2, offset: 0x8EB2, size: 0x8, addend: 0x0, symName: __ZNSt3__19basic_iosIcNS_11char_traitsIcEEE8setstateB8ue170006Ej, symObjAddr: 0x2130, symBinAddr: 0x1000054A8, symSize: 0x2C }
  - { offsetInCU: 0x8EE6, offset: 0x8EE6, size: 0x8, addend: 0x0, symName: __ZNKSt3__18ios_base5widthB8ue170006Ev, symObjAddr: 0x215C, symBinAddr: 0x1000054D4, symSize: 0x18 }
  - { offsetInCU: 0x8F0D, offset: 0x8F0D, size: 0x8, addend: 0x0, symName: __ZNSt3__115basic_streambufIcNS_11char_traitsIcEEE5sputnB8ue170006EPKcl, symObjAddr: 0x2174, symBinAddr: 0x1000054EC, symSize: 0x3C }
  - { offsetInCU: 0x8F4D, offset: 0x8F4D, size: 0x8, addend: 0x0, symName: __ZNSt3__112basic_stringIcNS_11char_traitsIcEENS_9allocatorIcEEEC1B8ue170006Emc, symObjAddr: 0x21B0, symBinAddr: 0x100005528, symSize: 0x3C }
  - { offsetInCU: 0x8F94, offset: 0x8F94, size: 0x8, addend: 0x0, symName: __ZNSt3__112basic_stringIcNS_11char_traitsIcEENS_9allocatorIcEEE4dataB8ue170006Ev, symObjAddr: 0x21EC, symBinAddr: 0x100005564, symSize: 0x28 }
  - { offsetInCU: 0x8FB9, offset: 0x8FB9, size: 0x8, addend: 0x0, symName: __ZNSt3__18ios_base5widthB8ue170006El, symObjAddr: 0x2214, symBinAddr: 0x10000558C, symSize: 0x2C }
  - { offsetInCU: 0x8FFD, offset: 0x8FFD, size: 0x8, addend: 0x0, symName: __ZNSt3__112basic_stringIcNS_11char_traitsIcEENS_9allocatorIcEEEC2B8ue170006Emc, symObjAddr: 0x2240, symBinAddr: 0x1000055B8, symSize: 0x4C }
  - { offsetInCU: 0x9044, offset: 0x9044, size: 0x8, addend: 0x0, symName: __ZNSt3__112basic_stringIcNS_11char_traitsIcEENS_9allocatorIcEEE13__get_pointerB8ue170006Ev, symObjAddr: 0x22A0, symBinAddr: 0x100005618, symSize: 0x54 }
  - { offsetInCU: 0x9068, offset: 0x9068, size: 0x8, addend: 0x0, symName: __ZNSt3__119ostreambuf_iteratorIcNS_11char_traitsIcEEEC2B8ue170006ERNS_13basic_ostreamIcS2_EE, symObjAddr: 0x22F4, symBinAddr: 0x10000566C, symSize: 0x54 }
  - { offsetInCU: 0x909F, offset: 0x909F, size: 0x8, addend: 0x0, symName: __ZNKSt3__19basic_iosIcNS_11char_traitsIcEEE5rdbufB8ue170006Ev, symObjAddr: 0x2348, symBinAddr: 0x1000056C0, symSize: 0x24 }
  - { offsetInCU: 0x90C6, offset: 0x90C6, size: 0x8, addend: 0x0, symName: __ZNKSt3__18ios_base5rdbufB8ue170006Ev, symObjAddr: 0x236C, symBinAddr: 0x1000056E4, symSize: 0x18 }
  - { offsetInCU: 0x90EB, offset: 0x90EB, size: 0x8, addend: 0x0, symName: __ZNSt3__111char_traitsIcE11eq_int_typeB8ue170006Eii, symObjAddr: 0x2384, symBinAddr: 0x1000056FC, symSize: 0x28 }
  - { offsetInCU: 0x911E, offset: 0x911E, size: 0x8, addend: 0x0, symName: __ZNSt3__111char_traitsIcE3eofB8ue170006Ev, symObjAddr: 0x23AC, symBinAddr: 0x100005724, symSize: 0x8 }
  - { offsetInCU: 0x9132, offset: 0x9132, size: 0x8, addend: 0x0, symName: __ZNKSt3__19basic_iosIcNS_11char_traitsIcEEE5widenB8ue170006Ec, symObjAddr: 0x23B4, symBinAddr: 0x10000572C, symSize: 0x84 }
  - { offsetInCU: 0x919F, offset: 0x919F, size: 0x8, addend: 0x0, symName: __ZNKSt3__15ctypeIcE5widenB8ue170006Ec, symObjAddr: 0x2464, symBinAddr: 0x1000057DC, symSize: 0x38 }
  - { offsetInCU: 0x91D3, offset: 0x91D3, size: 0x8, addend: 0x0, symName: __ZNSt3__18ios_base8setstateB8ue170006Ej, symObjAddr: 0x249C, symBinAddr: 0x100005814, symSize: 0x34 }
  - { offsetInCU: 0x9208, offset: 0x9208, size: 0x8, addend: 0x0, symName: __ZNSt3__18__iom_t4IcEC1B8ue170006Ec, symObjAddr: 0x24F4, symBinAddr: 0x10000586C, symSize: 0x34 }
  - { offsetInCU: 0x923F, offset: 0x923F, size: 0x8, addend: 0x0, symName: __ZNSt3__18__iom_t4IcEC2B8ue170006Ec, symObjAddr: 0x2528, symBinAddr: 0x1000058A0, symSize: 0x20 }
  - { offsetInCU: 0x9276, offset: 0x9276, size: 0x8, addend: 0x0, symName: __ZNSt3__19basic_iosIcNS_11char_traitsIcEEE4fillB8ue170006Ec, symObjAddr: 0x2548, symBinAddr: 0x1000058C0, symSize: 0x74 }
  - { offsetInCU: 0xDD62, offset: 0x170B2, size: 0x8, addend: 0x0, symName: __ZNSt3__17advanceB8ue170006IPPN6seneca11WorkstationEllvEEvRT_T0_, symObjAddr: 0x45A0, symBinAddr: 0x1000093B4, symSize: 0x38 }
  - { offsetInCU: 0xFB7E, offset: 0x18ECE, size: 0x8, addend: 0x0, symName: __ZNSt3__17getlineB8ue170006IcNS_11char_traitsIcEENS_9allocatorIcEEEERNS_13basic_istreamIT_T0_EES9_RNS_12basic_stringIS6_S7_T1_EE, symObjAddr: 0x640, symBinAddr: 0x100005F1C, symSize: 0x5C }
  - { offsetInCU: 0xFBD6, offset: 0x18F26, size: 0x8, addend: 0x0, symName: '__ZNSt3__17find_ifB8ue170006INS_11__wrap_iterIPKPN6seneca11WorkstationEEEZNS2_11LineManagerC1ERKNS_12basic_stringIcNS_11char_traitsIcEENS_9allocatorIcEEEERKNS_6vectorIS4_NSC_IS4_EEEEE3$_0EET_SN_SN_T0_', symObjAddr: 0x6C8, symBinAddr: 0x100005FA4, symSize: 0x80 }
  - { offsetInCU: 0xFC32, offset: 0x18F82, size: 0x8, addend: 0x0, symName: '__ZNSt3__17find_ifB8ue170006INS_11__wrap_iterIPKPN6seneca11WorkstationEEEZNS2_11LineManagerC1ERKNS_12basic_stringIcNS_11char_traitsIcEENS_9allocatorIcEEEERKNS_6vectorIS4_NSC_IS4_EEEEE3$_1EET_SN_SN_T0_', symObjAddr: 0x7A8, symBinAddr: 0x100006084, symSize: 0x80 }
  - { offsetInCU: 0xFC8E, offset: 0x18FDE, size: 0x8, addend: 0x0, symName: __ZNSt3__1neB8ue170006IPKPN6seneca11WorkstationEEEbRKNS_11__wrap_iterIT_EESA_, symObjAddr: 0x828, symBinAddr: 0x100006104, symSize: 0x34 }
  - { offsetInCU: 0xFCD1, offset: 0x19021, size: 0x8, addend: 0x0, symName: '__ZNSt3__111find_if_notB8ue170006INS_11__wrap_iterIPPN6seneca11WorkstationEEEZNS2_11LineManagerC1ERKNS_12basic_stringIcNS_11char_traitsIcEENS_9allocatorIcEEEERKNS_6vectorIS4_NSB_IS4_EEEEE3$_2EET_SM_SM_T0_', symObjAddr: 0x900, symBinAddr: 0x1000061DC, symSize: 0x78 }
  - { offsetInCU: 0xFD37, offset: 0x19087, size: 0x8, addend: 0x0, symName: __ZNSt3__1eqB8ue170006IPKPN6seneca11WorkstationEEEbRKNS_11__wrap_iterIT_EESA_, symObjAddr: 0xC80, symBinAddr: 0x100006534, symSize: 0x48 }
  - { offsetInCU: 0xFD7A, offset: 0x190CA, size: 0x8, addend: 0x0, symName: __ZNSt3__112__to_addressB8ue170006IPN6seneca11WorkstationEEEPT_S5_, symObjAddr: 0x14A8, symBinAddr: 0x100006BA4, symSize: 0x14 }
  - { offsetInCU: 0xFDAF, offset: 0x190FF, size: 0x8, addend: 0x0, symName: __ZNSt3__17getlineB8ue170006IcNS_11char_traitsIcEENS_9allocatorIcEEEERNS_13basic_istreamIT_T0_EES9_RNS_12basic_stringIS6_S7_T1_EES6_, symObjAddr: 0x1B64, symBinAddr: 0x100006F6C, symSize: 0x238 }
  - { offsetInCU: 0x1005A, offset: 0x193AA, size: 0x8, addend: 0x0, symName: __ZNSt3__13minB8ue170006ImEERKT_S3_S3_, symObjAddr: 0x2D70, symBinAddr: 0x100007C0C, symSize: 0x2C }
  - { offsetInCU: 0x10287, offset: 0x195D7, size: 0x8, addend: 0x0, symName: __ZNSt3__13minB8ue170006ImNS_6__lessIvvEEEERKT_S5_S5_T0_, symObjAddr: 0x2DFC, symBinAddr: 0x100007C98, symSize: 0x54 }
  - { offsetInCU: 0x102E1, offset: 0x19631, size: 0x8, addend: 0x0, symName: __ZNSt3__120__throw_length_errorB8ue170006EPKc, symObjAddr: 0x2ED8, symBinAddr: 0x100007D40, symSize: 0x64 }
  - { offsetInCU: 0x1030C, offset: 0x1965C, size: 0x8, addend: 0x0, symName: __ZNSt3__119__allocate_at_leastB8ue170006INS_9allocatorIPN6seneca11WorkstationEEEEENS_19__allocation_resultINS_16allocator_traitsIT_E7pointerEEERS8_m, symObjAddr: 0x3120, symBinAddr: 0x100007F34, symSize: 0x40 }
  - { offsetInCU: 0x1034F, offset: 0x1969F, size: 0x8, addend: 0x0, symName: __ZNSt3__117__libcpp_allocateB8ue170006Emm, symObjAddr: 0x32A4, symBinAddr: 0x1000080B8, symSize: 0x60 }
  - { offsetInCU: 0x103A9, offset: 0x196F9, size: 0x8, addend: 0x0, symName: __ZNSt3__121__libcpp_operator_newB8ue170006IJmSt11align_val_tEEEPvDpT_, symObjAddr: 0x3304, symBinAddr: 0x100008118, symSize: 0x2C }
  - { offsetInCU: 0x103F6, offset: 0x19746, size: 0x8, addend: 0x0, symName: __ZNSt3__121__libcpp_operator_newB8ue170006IJmEEEPvDpT_, symObjAddr: 0x3330, symBinAddr: 0x100008144, symSize: 0x24 }
  - { offsetInCU: 0x1042F, offset: 0x1977F, size: 0x8, addend: 0x0, symName: __ZNSt3__142__uninitialized_allocator_move_if_noexceptB8ue170006INS_9allocatorIPN6seneca11WorkstationEEENS_16reverse_iteratorIPS4_EES8_S4_vEET1_RT_T0_SC_S9_, symObjAddr: 0x33B8, symBinAddr: 0x1000081CC, symSize: 0x78 }
  - { offsetInCU: 0x104AE, offset: 0x197FE, size: 0x8, addend: 0x0, symName: __ZNSt3__14swapB8ue170006IPPN6seneca11WorkstationEEENS_9enable_ifIXaasr21is_move_constructibleIT_EE5valuesr18is_move_assignableIS6_EE5valueEvE4typeERS6_S9_, symObjAddr: 0x347C, symBinAddr: 0x100008290, symSize: 0x3C }
  - { offsetInCU: 0x104FF, offset: 0x1984F, size: 0x8, addend: 0x0, symName: __ZNSt3__14moveB8ue170006INS_16reverse_iteratorIPPN6seneca11WorkstationEEES6_EET0_T_S8_S7_, symObjAddr: 0x3564, symBinAddr: 0x100008378, symSize: 0x78 }
  - { offsetInCU: 0x10559, offset: 0x198A9, size: 0x8, addend: 0x0, symName: __ZNSt3__16__moveB8ue170006INS_17_ClassicAlgPolicyENS_16reverse_iteratorIPPN6seneca11WorkstationEEES7_S7_EENS_4pairIT0_T2_EES9_T1_SA_, symObjAddr: 0x35DC, symBinAddr: 0x1000083F0, symSize: 0x64 }
  - { offsetInCU: 0x105C5, offset: 0x19915, size: 0x8, addend: 0x0, symName: __ZNSt3__123__dispatch_copy_or_moveB8ue170006INS_17_ClassicAlgPolicyENS_11__move_loopIS1_EENS_14__move_trivialENS_16reverse_iteratorIPPN6seneca11WorkstationEEESA_SA_EENS_4pairIT2_T4_EESC_T3_SD_, symObjAddr: 0x3640, symBinAddr: 0x100008454, symSize: 0x64 }
  - { offsetInCU: 0x10643, offset: 0x19993, size: 0x8, addend: 0x0, symName: __ZNSt3__121__unwrap_and_dispatchB8ue170006INS_10__overloadINS_11__move_loopINS_17_ClassicAlgPolicyEEENS_14__move_trivialEEENS_16reverse_iteratorIPPN6seneca11WorkstationEEESC_SC_Li0EEENS_4pairIT0_T2_EESE_T1_SF_, symObjAddr: 0x36A4, symBinAddr: 0x1000084B8, symSize: 0x12C }
  - { offsetInCU: 0x106D4, offset: 0x19A24, size: 0x8, addend: 0x0, symName: __ZNSt3__114__unwrap_rangeB8ue170006INS_16reverse_iteratorIPPN6seneca11WorkstationEEES6_EENS_4pairIT0_S8_EET_SA_, symObjAddr: 0x37D0, symBinAddr: 0x1000085E4, symSize: 0x84 }
  - { offsetInCU: 0x10850, offset: 0x19BA0, size: 0x8, addend: 0x0, symName: __ZNSt3__113__unwrap_iterB8ue170006INS_16reverse_iteratorIPPN6seneca11WorkstationEEENS_18__unwrap_iter_implIS6_Lb0EEELi0EEEDTclsrT0_8__unwrapclsr3stdE7declvalIT_EEEESA_, symObjAddr: 0x38F4, symBinAddr: 0x100008708, symSize: 0x44 }
  - { offsetInCU: 0x10895, offset: 0x19BE5, size: 0x8, addend: 0x0, symName: __ZNSt3__19make_pairB8ue170006INS_16reverse_iteratorIPPN6seneca11WorkstationEEES6_EENS_4pairINS_18__unwrap_ref_decayIT_E4typeENS8_IT0_E4typeEEEOS9_OSC_, symObjAddr: 0x3938, symBinAddr: 0x10000874C, symSize: 0x38 }
  - { offsetInCU: 0x108E4, offset: 0x19C34, size: 0x8, addend: 0x0, symName: __ZNSt3__114__rewrap_rangeB8ue170006INS_16reverse_iteratorIPPN6seneca11WorkstationEEES6_EET_S7_T0_, symObjAddr: 0x3970, symBinAddr: 0x100008784, symSize: 0x5C }
  - { offsetInCU: 0x10930, offset: 0x19C80, size: 0x8, addend: 0x0, symName: __ZNSt3__113__rewrap_iterB8ue170006INS_16reverse_iteratorIPPN6seneca11WorkstationEEES6_NS_18__unwrap_iter_implIS6_Lb0EEEEET_S9_T0_, symObjAddr: 0x39CC, symBinAddr: 0x1000087E0, symSize: 0x74 }
  - { offsetInCU: 0x10985, offset: 0x19CD5, size: 0x8, addend: 0x0, symName: __ZNSt3__1neB8ue170006IPPN6seneca11WorkstationES4_EEbRKNS_16reverse_iteratorIT_EERKNS5_IT0_EE, symObjAddr: 0x3A40, symBinAddr: 0x100008854, symSize: 0x48 }
  - { offsetInCU: 0x10A85, offset: 0x19DD5, size: 0x8, addend: 0x0, symName: __ZNSt3__1neB8ue170006IPPN6seneca11WorkstationEEEbRKNS_11__wrap_iterIT_EES9_, symObjAddr: 0x3E54, symBinAddr: 0x100008C68, symSize: 0x34 }
  - { offsetInCU: 0x10AC8, offset: 0x19E18, size: 0x8, addend: 0x0, symName: __ZNSt3__1eqB8ue170006IPPN6seneca11WorkstationEEEbRKNS_11__wrap_iterIT_EES9_, symObjAddr: 0x3F08, symBinAddr: 0x100008D1C, symSize: 0x48 }
  - { offsetInCU: 0x10B0B, offset: 0x19E5B, size: 0x8, addend: 0x0, symName: '__ZNSt3__16any_ofB8ue170006INS_11__wrap_iterIPKPN6seneca11WorkstationEEEZZNS2_11LineManagerC1ERKNS_12basic_stringIcNS_11char_traitsIcEENS_9allocatorIcEEEERKNS_6vectorIS4_NSC_IS4_EEEEENK3$_2clES4_EUlS4_E_EEbT_SO_T0_', symObjAddr: 0x3F68, symBinAddr: 0x100008D7C, symSize: 0x98 }
  - { offsetInCU: 0x10B66, offset: 0x19EB6, size: 0x8, addend: 0x0, symName: __ZNSt3__18distanceB8ue170006IPPN6seneca11WorkstationEEENS_15iterator_traitsIT_E15difference_typeES6_S6_, symObjAddr: 0x42A4, symBinAddr: 0x1000090B8, symSize: 0x2C }
  - { offsetInCU: 0x10BA9, offset: 0x19EF9, size: 0x8, addend: 0x0, symName: __ZNSt3__14nextB8ue170006IPPN6seneca11WorkstationEEENS_9enable_ifIXsr29__has_input_iterator_categoryIT_EE5valueES6_E4typeES6_NS_15iterator_traitsIS6_E15difference_typeE, symObjAddr: 0x42D0, symBinAddr: 0x1000090E4, symSize: 0x34 }
  - { offsetInCU: 0x10BEC, offset: 0x19F3C, size: 0x8, addend: 0x0, symName: __ZNSt3__14copyB8ue170006IPPN6seneca11WorkstationES4_EET0_T_S6_S5_, symObjAddr: 0x4304, symBinAddr: 0x100009118, symSize: 0x40 }
  - { offsetInCU: 0x10C46, offset: 0x19F96, size: 0x8, addend: 0x0, symName: __ZNSt3__16__copyB8ue170006INS_17_ClassicAlgPolicyEPPN6seneca11WorkstationES5_S5_EENS_4pairIT0_T2_EES7_T1_S8_, symObjAddr: 0x43D0, symBinAddr: 0x1000091E4, symSize: 0x44 }
  - { offsetInCU: 0x10CB2, offset: 0x1A002, size: 0x8, addend: 0x0, symName: __ZNSt3__121__convert_to_integralB8ue170006El, symObjAddr: 0x45D8, symBinAddr: 0x1000093EC, symSize: 0x14 }
  - { offsetInCU: 0x10CDE, offset: 0x1A02E, size: 0x8, addend: 0x0, symName: __ZNSt3__19__advanceB8ue170006IPPN6seneca11WorkstationEEEvRT_NS_15iterator_traitsIS5_E15difference_typeENS_26random_access_iterator_tagE, symObjAddr: 0x45EC, symBinAddr: 0x100009400, symSize: 0x28 }
  - { offsetInCU: 0x10D29, offset: 0x1A079, size: 0x8, addend: 0x0, symName: __ZNSt3__130__uninitialized_allocator_copyB8ue170006INS_9allocatorIPN6seneca11WorkstationEEEPS4_S6_S6_EET2_RT_T0_T1_S7_, symObjAddr: 0x4614, symBinAddr: 0x100009428, symSize: 0x80 }
  - { offsetInCU: 0x10DC6, offset: 0x1A116, size: 0x8, addend: 0x0, symName: __ZNSt3__114__unwrap_rangeB8ue170006IPPN6seneca11WorkstationES4_EENS_4pairIT0_S6_EET_S8_, symObjAddr: 0x4694, symBinAddr: 0x1000094A8, symSize: 0x60 }
  - { offsetInCU: 0x10E12, offset: 0x1A162, size: 0x8, addend: 0x0, symName: __ZNSt3__135__uninitialized_allocator_copy_implB8ue170006INS_9allocatorIPN6seneca11WorkstationEEES4_S4_S4_LPv0EEEPT2_RT_PT0_SC_S8_, symObjAddr: 0x46F4, symBinAddr: 0x100009508, symSize: 0x38 }
  - { offsetInCU: 0x10E95, offset: 0x1A1E5, size: 0x8, addend: 0x0, symName: __ZNSt3__113__unwrap_iterB8ue170006IPPN6seneca11WorkstationENS_18__unwrap_iter_implIS4_Lb1EEELi0EEEDTclsrT0_8__unwrapclsr3stdE7declvalIT_EEEES8_, symObjAddr: 0x472C, symBinAddr: 0x100009540, symSize: 0x24 }
  - { offsetInCU: 0x10EDA, offset: 0x1A22A, size: 0x8, addend: 0x0, symName: __ZNSt3__113__rewrap_iterB8ue170006IPPN6seneca11WorkstationES4_NS_18__unwrap_iter_implIS4_Lb1EEEEET_S7_T0_, symObjAddr: 0x4750, symBinAddr: 0x100009564, symSize: 0x3C }
  - { offsetInCU: 0x10F2F, offset: 0x1A27F, size: 0x8, addend: 0x0, symName: __ZNSt3__19make_pairB8ue170006IPPN6seneca11WorkstationES4_EENS_4pairINS_18__unwrap_ref_decayIT_E4typeENS6_IT0_E4typeEEEOS7_OSA_, symObjAddr: 0x478C, symBinAddr: 0x1000095A0, symSize: 0x38 }
  - { offsetInCU: 0x110D7, offset: 0x1A427, size: 0x8, addend: 0x0, symName: __ZNSt3__123__dispatch_copy_or_moveB8ue170006INS_17_ClassicAlgPolicyENS_11__copy_loopIS1_EENS_14__copy_trivialEPPN6seneca11WorkstationES8_S8_EENS_4pairIT2_T4_EESA_T3_SB_, symObjAddr: 0x48A8, symBinAddr: 0x1000096BC, symSize: 0x44 }
  - { offsetInCU: 0x11155, offset: 0x1A4A5, size: 0x8, addend: 0x0, symName: __ZNSt3__121__unwrap_and_dispatchB8ue170006INS_10__overloadINS_11__copy_loopINS_17_ClassicAlgPolicyEEENS_14__copy_trivialEEEPPN6seneca11WorkstationESA_SA_Li0EEENS_4pairIT0_T2_EESC_T1_SD_, symObjAddr: 0x48EC, symBinAddr: 0x100009700, symSize: 0xB4 }
  - { offsetInCU: 0x1122B, offset: 0x1A57B, size: 0x8, addend: 0x0, symName: __ZNSt3__114__rewrap_rangeB8ue170006IPPN6seneca11WorkstationES4_EET_S5_T0_, symObjAddr: 0x49E8, symBinAddr: 0x1000097FC, symSize: 0x2C }
  - { offsetInCU: 0x11277, offset: 0x1A5C7, size: 0x8, addend: 0x0, symName: __ZNSt3__119__copy_trivial_implB8ue170006IPN6seneca11WorkstationES3_EENS_4pairIPT_PT0_EES6_S6_S8_, symObjAddr: 0x4A14, symBinAddr: 0x100009828, symSize: 0x80 }
  - { offsetInCU: 0x112DF, offset: 0x1A62F, size: 0x8, addend: 0x0, symName: __ZNSt3__119__constexpr_memmoveB8ue170006IPN6seneca11WorkstationES3_Li0EEEPT_S5_PT0_NS_15__element_countE, symObjAddr: 0x4A94, symBinAddr: 0x1000098A8, symSize: 0x64 }
  - { offsetInCU: 0x1134E, offset: 0x1A69E, size: 0x8, addend: 0x0, symName: __ZNSt3__19make_pairB8ue170006IRPPN6seneca11WorkstationES4_EENS_4pairINS_18__unwrap_ref_decayIT_E4typeENS7_IT0_E4typeEEEOS8_OSB_, symObjAddr: 0x4AF8, symBinAddr: 0x10000990C, symSize: 0x38 }
  - { offsetInCU: 0x1139D, offset: 0x1A6ED, size: 0x8, addend: 0x0, symName: __ZNSt3__110__distanceB8ue170006IPPN6seneca11WorkstationEEENS_15iterator_traitsIT_E15difference_typeES6_S6_NS_26random_access_iterator_tagE, symObjAddr: 0x4C98, symBinAddr: 0x100009AAC, symSize: 0x28 }
  - { offsetInCU: 0x11909, offset: 0x1AC59, size: 0x8, addend: 0x0, symName: __ZSt28__throw_bad_array_new_lengthB8ue170006v, symObjAddr: 0x3270, symBinAddr: 0x100008084, symSize: 0x34 }
  - { offsetInCU: 0x1291A, offset: 0x1BC6A, size: 0x8, addend: 0x0, symName: __ZNSt3__16vectorIPN6seneca11WorkstationENS_9allocatorIS3_EEE26__swap_out_circular_bufferERNS_14__split_bufferIS3_RS5_EE, symObjAddr: 0x2B8C, symBinAddr: 0x100007A54, symSize: 0x110 }
  - { offsetInCU: 0x14702, offset: 0x1DA52, size: 0x8, addend: 0x0, symName: __ZN6seneca11LineManagerC2ERKNSt3__112basic_stringIcNS1_11char_traitsIcEENS1_9allocatorIcEEEERKNS1_6vectorIPNS_11WorkstationENS5_ISC_EEEE, symObjAddr: 0x0, symBinAddr: 0x100005934, symSize: 0x43C }
  - { offsetInCU: 0x14805, offset: 0x1DB55, size: 0x8, addend: 0x0, symName: __ZNSt3__16vectorIPN6seneca11WorkstationENS_9allocatorIS3_EEEC1B8ue170006Ev, symObjAddr: 0x43C, symBinAddr: 0x100005D70, symSize: 0x2C }
  - { offsetInCU: 0x14943, offset: 0x1DC93, size: 0x8, addend: 0x0, symName: __ZNSt3__113basic_fstreamIcNS_11char_traitsIcEEEC1ERKNS_12basic_stringIcS2_NS_9allocatorIcEEEEj, symObjAddr: 0x468, symBinAddr: 0x100005D9C, symSize: 0x180 }
  - { offsetInCU: 0x149A0, offset: 0x1DCF0, size: 0x8, addend: 0x0, symName: __ZNKSt3__19basic_iosIcNS_11char_traitsIcEEEcvbB8ue170006Ev, symObjAddr: 0x69C, symBinAddr: 0x100005F78, symSize: 0x2C }
  - { offsetInCU: 0x149C5, offset: 0x1DD15, size: 0x8, addend: 0x0, symName: __ZNKSt3__16vectorIPN6seneca11WorkstationENS_9allocatorIS3_EEE5beginB8ue170006Ev, symObjAddr: 0x748, symBinAddr: 0x100006024, symSize: 0x30 }
  - { offsetInCU: 0x149EC, offset: 0x1DD3C, size: 0x8, addend: 0x0, symName: __ZNKSt3__16vectorIPN6seneca11WorkstationENS_9allocatorIS3_EEE3endB8ue170006Ev, symObjAddr: 0x778, symBinAddr: 0x100006054, symSize: 0x30 }
  - { offsetInCU: 0x14A13, offset: 0x1DD63, size: 0x8, addend: 0x0, symName: __ZNSt3__16vectorIPN6seneca11WorkstationENS_9allocatorIS3_EEE9push_backB8ue170006ERKS3_, symObjAddr: 0x85C, symBinAddr: 0x100006138, symSize: 0x6C }
  - { offsetInCU: 0x14A49, offset: 0x1DD99, size: 0x8, addend: 0x0, symName: __ZNKSt3__111__wrap_iterIPKPN6seneca11WorkstationEEdeB8ue170006Ev, symObjAddr: 0x8C8, symBinAddr: 0x1000061A4, symSize: 0x18 }
  - { offsetInCU: 0x14A6E, offset: 0x1DDBE, size: 0x8, addend: 0x0, symName: __ZN6seneca11Workstation14setNextStationEPS0_, symObjAddr: 0x8E0, symBinAddr: 0x1000061BC, symSize: 0x20 }
  - { offsetInCU: 0x14AA1, offset: 0x1DDF1, size: 0x8, addend: 0x0, symName: __ZNSt3__16vectorIPN6seneca11WorkstationENS_9allocatorIS3_EEE5beginB8ue170006Ev, symObjAddr: 0x978, symBinAddr: 0x100006254, symSize: 0x30 }
  - { offsetInCU: 0x14AC8, offset: 0x1DE18, size: 0x8, addend: 0x0, symName: __ZNSt3__16vectorIPN6seneca11WorkstationENS_9allocatorIS3_EEE3endB8ue170006Ev, symObjAddr: 0x9A8, symBinAddr: 0x100006284, symSize: 0x30 }
  - { offsetInCU: 0x14AEF, offset: 0x1DE3F, size: 0x8, addend: 0x0, symName: __ZNKSt3__111__wrap_iterIPPN6seneca11WorkstationEEdeB8ue170006Ev, symObjAddr: 0x9D8, symBinAddr: 0x1000062B4, symSize: 0x18 }
  - { offsetInCU: 0x14B14, offset: 0x1DE64, size: 0x8, addend: 0x0, symName: __ZNKSt3__15dequeIN6seneca13CustomerOrderENS_9allocatorIS2_EEE4sizeB8ue170006Ev, symObjAddr: 0x9F0, symBinAddr: 0x1000062CC, symSize: 0x28 }
  - { offsetInCU: 0x14B3E, offset: 0x1DE8E, size: 0x8, addend: 0x0, symName: __ZNSt3__113basic_fstreamIcNS_11char_traitsIcEEED1Ev, symObjAddr: 0xA18, symBinAddr: 0x1000062F4, symSize: 0x40 }
  - { offsetInCU: 0x14B77, offset: 0x1DEC7, size: 0x8, addend: 0x0, symName: __ZNSt12out_of_rangeC1B8ue170006ERKS_, symObjAddr: 0xA58, symBinAddr: 0x100006334, symSize: 0x34 }
  - { offsetInCU: 0x14BAA, offset: 0x1DEFA, size: 0x8, addend: 0x0, symName: __ZNSt3__16vectorIPN6seneca11WorkstationENS_9allocatorIS3_EEED1B8ue170006Ev, symObjAddr: 0xA98, symBinAddr: 0x100006368, symSize: 0x2C }
  - { offsetInCU: 0x14BD2, offset: 0x1DF22, size: 0x8, addend: 0x0, symName: __ZN6seneca11LineManagerC1ERKNSt3__112basic_stringIcNS1_11char_traitsIcEENS1_9allocatorIcEEEERKNS1_6vectorIPNS_11WorkstationENS5_ISC_EEEE, symObjAddr: 0xAC4, symBinAddr: 0x100006394, symSize: 0x3C }
  - { offsetInCU: 0x14CE1, offset: 0x1E031, size: 0x8, addend: 0x0, symName: __ZN6seneca11LineManager15reorderStationsEv, symObjAddr: 0xB00, symBinAddr: 0x1000063D0, symSize: 0xB4 }
  - { offsetInCU: 0x14D24, offset: 0x1E074, size: 0x8, addend: 0x0, symName: __ZNK6seneca11Workstation14getNextStationEv, symObjAddr: 0xBB4, symBinAddr: 0x100006484, symSize: 0x18 }
  - { offsetInCU: 0x14D49, offset: 0x1E099, size: 0x8, addend: 0x0, symName: __ZNSt3__16vectorIPN6seneca11WorkstationENS_9allocatorIS3_EEEaSB8ue170006ERKS6_, symObjAddr: 0xBCC, symBinAddr: 0x10000649C, symSize: 0x68 }
  - { offsetInCU: 0x14D7F, offset: 0x1E0CF, size: 0x8, addend: 0x0, symName: __ZN6seneca11LineManager3runERNSt3__113basic_ostreamIcNS1_11char_traitsIcEEEE, symObjAddr: 0xC34, symBinAddr: 0x100006504, symSize: 0x1C }
  - { offsetInCU: 0x14DB4, offset: 0x1E104, size: 0x8, addend: 0x0, symName: __ZNK6seneca11LineManager7displayERNSt3__113basic_ostreamIcNS1_11char_traitsIcEEEE, symObjAddr: 0xC50, symBinAddr: 0x100006520, symSize: 0x14 }
  - { offsetInCU: 0x14DE9, offset: 0x1E139, size: 0x8, addend: 0x0, symName: __ZNKSt3__111__wrap_iterIPKPN6seneca11WorkstationEE4baseB8ue170006Ev, symObjAddr: 0xCC8, symBinAddr: 0x10000657C, symSize: 0x18 }
  - { offsetInCU: 0x14E0E, offset: 0x1E15E, size: 0x8, addend: 0x0, symName: __ZNSt3__113basic_fstreamIcNS_11char_traitsIcEEED2Ev, symObjAddr: 0xCE0, symBinAddr: 0x100006594, symSize: 0x6C }
  - { offsetInCU: 0x14E44, offset: 0x1E194, size: 0x8, addend: 0x0, symName: __ZThn16_NSt3__113basic_fstreamIcNS_11char_traitsIcEEED1Ev, symObjAddr: 0xD4C, symBinAddr: 0x100006600, symSize: 0x1C }
  - { offsetInCU: 0x14E5A, offset: 0x1E1AA, size: 0x8, addend: 0x0, symName: __ZTv0_n24_NSt3__113basic_fstreamIcNS_11char_traitsIcEEED1Ev, symObjAddr: 0xD68, symBinAddr: 0x10000661C, symSize: 0x28 }
  - { offsetInCU: 0x14E70, offset: 0x1E1C0, size: 0x8, addend: 0x0, symName: __ZNSt3__113basic_fstreamIcNS_11char_traitsIcEEED0Ev, symObjAddr: 0xD90, symBinAddr: 0x100006644, symSize: 0x30 }
  - { offsetInCU: 0x14E9A, offset: 0x1E1EA, size: 0x8, addend: 0x0, symName: __ZThn16_NSt3__113basic_fstreamIcNS_11char_traitsIcEEED0Ev, symObjAddr: 0xDC0, symBinAddr: 0x100006674, symSize: 0x18 }
  - { offsetInCU: 0x14EB0, offset: 0x1E200, size: 0x8, addend: 0x0, symName: __ZTv0_n24_NSt3__113basic_fstreamIcNS_11char_traitsIcEEED0Ev, symObjAddr: 0xDD8, symBinAddr: 0x10000668C, symSize: 0x20 }
  - { offsetInCU: 0x14EC6, offset: 0x1E216, size: 0x8, addend: 0x0, symName: __ZNSt12out_of_rangeC2B8ue170006ERKS_, symObjAddr: 0xDF8, symBinAddr: 0x1000066AC, symSize: 0x4C }
  - { offsetInCU: 0x14EFE, offset: 0x1E24E, size: 0x8, addend: 0x0, symName: __ZNSt3__16vectorIPN6seneca11WorkstationENS_9allocatorIS3_EEEC2B8ue170006Ev, symObjAddr: 0xFFC, symBinAddr: 0x1000066F8, symSize: 0x4C }
  - { offsetInCU: 0x14F2B, offset: 0x1E27B, size: 0x8, addend: 0x0, symName: __ZNSt3__117__compressed_pairIPPN6seneca11WorkstationENS_9allocatorIS3_EEEC1B8ue170006IDnNS_18__default_init_tagEEEOT_OT0_, symObjAddr: 0x1048, symBinAddr: 0x100006744, symSize: 0x3C }
  - { offsetInCU: 0x14F81, offset: 0x1E2D1, size: 0x8, addend: 0x0, symName: __ZNSt3__117__compressed_pairIPPN6seneca11WorkstationENS_9allocatorIS3_EEEC2B8ue170006IDnNS_18__default_init_tagEEEOT_OT0_, symObjAddr: 0x1084, symBinAddr: 0x100006780, symSize: 0x40 }
  - { offsetInCU: 0x14FD7, offset: 0x1E327, size: 0x8, addend: 0x0, symName: __ZNSt3__122__compressed_pair_elemIPPN6seneca11WorkstationELi0ELb0EEC2B8ue170006IDnvEEOT_, symObjAddr: 0x10C4, symBinAddr: 0x1000067C0, symSize: 0x1C }
  - { offsetInCU: 0x15019, offset: 0x1E369, size: 0x8, addend: 0x0, symName: __ZNSt3__122__compressed_pair_elemINS_9allocatorIPN6seneca11WorkstationEEELi1ELb1EEC2B8ue170006ENS_18__default_init_tagE, symObjAddr: 0x10E0, symBinAddr: 0x1000067DC, symSize: 0x2C }
  - { offsetInCU: 0x1504C, offset: 0x1E39C, size: 0x8, addend: 0x0, symName: __ZNSt3__19allocatorIPN6seneca11WorkstationEEC2B8ue170006Ev, symObjAddr: 0x110C, symBinAddr: 0x100006808, symSize: 0x2C }
  - { offsetInCU: 0x15074, offset: 0x1E3C4, size: 0x8, addend: 0x0, symName: __ZNSt3__116__non_trivial_ifILb1ENS_9allocatorIPN6seneca11WorkstationEEEEC2B8ue170006Ev, symObjAddr: 0x1138, symBinAddr: 0x100006834, symSize: 0x14 }
  - { offsetInCU: 0x1509D, offset: 0x1E3ED, size: 0x8, addend: 0x0, symName: __ZNSt3__16vectorIPN6seneca11WorkstationENS_9allocatorIS3_EEED2B8ue170006Ev, symObjAddr: 0x114C, symBinAddr: 0x100006848, symSize: 0x44 }
  - { offsetInCU: 0x150C5, offset: 0x1E415, size: 0x8, addend: 0x0, symName: __ZNSt3__16vectorIPN6seneca11WorkstationENS_9allocatorIS3_EEE16__destroy_vectorC1B8ue170006ERS6_, symObjAddr: 0x1190, symBinAddr: 0x10000688C, symSize: 0x34 }
  - { offsetInCU: 0x150FC, offset: 0x1E44C, size: 0x8, addend: 0x0, symName: __ZNSt3__16vectorIPN6seneca11WorkstationENS_9allocatorIS3_EEE16__destroy_vectorclB8ue170006Ev, symObjAddr: 0x11C4, symBinAddr: 0x1000068C0, symSize: 0x90 }
  - { offsetInCU: 0x15121, offset: 0x1E471, size: 0x8, addend: 0x0, symName: __ZNSt3__16vectorIPN6seneca11WorkstationENS_9allocatorIS3_EEE16__destroy_vectorC2B8ue170006ERS6_, symObjAddr: 0x1254, symBinAddr: 0x100006950, symSize: 0x20 }
  - { offsetInCU: 0x15159, offset: 0x1E4A9, size: 0x8, addend: 0x0, symName: __ZNSt3__16vectorIPN6seneca11WorkstationENS_9allocatorIS3_EEE7__clearB8ue170006Ev, symObjAddr: 0x1274, symBinAddr: 0x100006970, symSize: 0x28 }
  - { offsetInCU: 0x1517E, offset: 0x1E4CE, size: 0x8, addend: 0x0, symName: __ZNKSt3__16vectorIPN6seneca11WorkstationENS_9allocatorIS3_EEE17__annotate_deleteB8ue170006Ev, symObjAddr: 0x129C, symBinAddr: 0x100006998, symSize: 0xB8 }
  - { offsetInCU: 0x151A3, offset: 0x1E4F3, size: 0x8, addend: 0x0, symName: __ZNSt3__116allocator_traitsINS_9allocatorIPN6seneca11WorkstationEEEE10deallocateB8ue170006ERS5_PS4_m, symObjAddr: 0x1354, symBinAddr: 0x100006A50, symSize: 0x34 }
  - { offsetInCU: 0x151E5, offset: 0x1E535, size: 0x8, addend: 0x0, symName: __ZNSt3__16vectorIPN6seneca11WorkstationENS_9allocatorIS3_EEE7__allocB8ue170006Ev, symObjAddr: 0x1388, symBinAddr: 0x100006A84, symSize: 0x28 }
  - { offsetInCU: 0x1520A, offset: 0x1E55A, size: 0x8, addend: 0x0, symName: __ZNKSt3__16vectorIPN6seneca11WorkstationENS_9allocatorIS3_EEE8capacityB8ue170006Ev, symObjAddr: 0x13B0, symBinAddr: 0x100006AAC, symSize: 0x40 }
  - { offsetInCU: 0x1522F, offset: 0x1E57F, size: 0x8, addend: 0x0, symName: __ZNSt3__16vectorIPN6seneca11WorkstationENS_9allocatorIS3_EEE22__base_destruct_at_endB8ue170006EPS3_, symObjAddr: 0x13F0, symBinAddr: 0x100006AEC, symSize: 0x8C }
  - { offsetInCU: 0x15272, offset: 0x1E5C2, size: 0x8, addend: 0x0, symName: __ZNSt3__116allocator_traitsINS_9allocatorIPN6seneca11WorkstationEEEE7destroyB8ue170006IS4_vEEvRS5_PT_, symObjAddr: 0x147C, symBinAddr: 0x100006B78, symSize: 0x2C }
  - { offsetInCU: 0x152B0, offset: 0x1E600, size: 0x8, addend: 0x0, symName: __ZNSt3__19allocatorIPN6seneca11WorkstationEE7destroyB8ue170006EPS3_, symObjAddr: 0x14BC, symBinAddr: 0x100006BB8, symSize: 0x14 }
  - { offsetInCU: 0x152E3, offset: 0x1E633, size: 0x8, addend: 0x0, symName: __ZNKSt3__16vectorIPN6seneca11WorkstationENS_9allocatorIS3_EEE31__annotate_contiguous_containerB8ue170006EPKvS8_S8_S8_, symObjAddr: 0x14D0, symBinAddr: 0x100006BCC, symSize: 0x20 }
  - { offsetInCU: 0x15338, offset: 0x1E688, size: 0x8, addend: 0x0, symName: __ZNKSt3__16vectorIPN6seneca11WorkstationENS_9allocatorIS3_EEE4dataB8ue170006Ev, symObjAddr: 0x14F0, symBinAddr: 0x100006BEC, symSize: 0x28 }
  - { offsetInCU: 0x1535D, offset: 0x1E6AD, size: 0x8, addend: 0x0, symName: __ZNKSt3__16vectorIPN6seneca11WorkstationENS_9allocatorIS3_EEE4sizeB8ue170006Ev, symObjAddr: 0x1518, symBinAddr: 0x100006C14, symSize: 0x28 }
  - { offsetInCU: 0x15382, offset: 0x1E6D2, size: 0x8, addend: 0x0, symName: __ZNSt3__19allocatorIPN6seneca11WorkstationEE10deallocateB8ue170006EPS3_m, symObjAddr: 0x1540, symBinAddr: 0x100006C3C, symSize: 0x40 }
  - { offsetInCU: 0x153C3, offset: 0x1E713, size: 0x8, addend: 0x0, symName: __ZNSt3__117__compressed_pairIPPN6seneca11WorkstationENS_9allocatorIS3_EEE6secondB8ue170006Ev, symObjAddr: 0x16A8, symBinAddr: 0x100006C7C, symSize: 0x24 }
  - { offsetInCU: 0x153E8, offset: 0x1E738, size: 0x8, addend: 0x0, symName: __ZNSt3__122__compressed_pair_elemINS_9allocatorIPN6seneca11WorkstationEEELi1ELb1EE5__getB8ue170006Ev, symObjAddr: 0x16CC, symBinAddr: 0x100006CA0, symSize: 0x14 }
  - { offsetInCU: 0x1540D, offset: 0x1E75D, size: 0x8, addend: 0x0, symName: __ZNKSt3__16vectorIPN6seneca11WorkstationENS_9allocatorIS3_EEE9__end_capB8ue170006Ev, symObjAddr: 0x16E0, symBinAddr: 0x100006CB4, symSize: 0x28 }
  - { offsetInCU: 0x15432, offset: 0x1E782, size: 0x8, addend: 0x0, symName: __ZNKSt3__117__compressed_pairIPPN6seneca11WorkstationENS_9allocatorIS3_EEE5firstB8ue170006Ev, symObjAddr: 0x1708, symBinAddr: 0x100006CDC, symSize: 0x24 }
  - { offsetInCU: 0x15457, offset: 0x1E7A7, size: 0x8, addend: 0x0, symName: __ZNKSt3__122__compressed_pair_elemIPPN6seneca11WorkstationELi0ELb0EE5__getB8ue170006Ev, symObjAddr: 0x172C, symBinAddr: 0x100006D00, symSize: 0x14 }
  - { offsetInCU: 0x1547C, offset: 0x1E7CC, size: 0x8, addend: 0x0, symName: __ZNSt3__19basic_iosIcNS_11char_traitsIcEEEC2B8ue170006Ev, symObjAddr: 0x1740, symBinAddr: 0x100006D14, symSize: 0x44 }
  - { offsetInCU: 0x154A4, offset: 0x1E7F4, size: 0x8, addend: 0x0, symName: __ZNSt3__114basic_iostreamIcNS_11char_traitsIcEEEC2B8ue170006EPNS_15basic_streambufIcS2_EE, symObjAddr: 0x1784, symBinAddr: 0x100006D58, symSize: 0xAC }
  - { offsetInCU: 0x154E7, offset: 0x1E837, size: 0x8, addend: 0x0, symName: __ZNSt3__113basic_filebufIcNS_11char_traitsIcEEE4openERKNS_12basic_stringIcS2_NS_9allocatorIcEEEEj, symObjAddr: 0x1830, symBinAddr: 0x100006E04, symSize: 0x44 }
  - { offsetInCU: 0x1552A, offset: 0x1E87A, size: 0x8, addend: 0x0, symName: __ZNSt3__18ios_baseC2B8ue170006Ev, symObjAddr: 0x18A0, symBinAddr: 0x100006E48, symSize: 0x24 }
  - { offsetInCU: 0x15553, offset: 0x1E8A3, size: 0x8, addend: 0x0, symName: __ZNSt3__113basic_istreamIcNS_11char_traitsIcEEEC2B8ue170006EPNS_15basic_streambufIcS2_EE, symObjAddr: 0x18C4, symBinAddr: 0x100006E6C, symSize: 0x64 }
  - { offsetInCU: 0x15595, offset: 0x1E8E5, size: 0x8, addend: 0x0, symName: __ZNSt3__113basic_ostreamIcNS_11char_traitsIcEEEC2B8ue170006Ev, symObjAddr: 0x1928, symBinAddr: 0x100006ED0, symSize: 0x34 }
  - { offsetInCU: 0x155CA, offset: 0x1E91A, size: 0x8, addend: 0x0, symName: __ZNSt3__19basic_iosIcNS_11char_traitsIcEEE4initB8ue170006EPNS_15basic_streambufIcS2_EE, symObjAddr: 0x195C, symBinAddr: 0x100006F04, symSize: 0x44 }
  - { offsetInCU: 0x15600, offset: 0x1E950, size: 0x8, addend: 0x0, symName: __ZNKSt3__112basic_stringIcNS_11char_traitsIcEENS_9allocatorIcEEE5c_strB8ue170006Ev, symObjAddr: 0x19A8, symBinAddr: 0x100006F48, symSize: 0x24 }
  - { offsetInCU: 0x15643, offset: 0x1E993, size: 0x8, addend: 0x0, symName: __ZNKSt3__113basic_istreamIcNS_11char_traitsIcEEE6sentrycvbB8ue170006Ev, symObjAddr: 0x1E20, symBinAddr: 0x1000071A4, symSize: 0x1C }
  - { offsetInCU: 0x15668, offset: 0x1E9B8, size: 0x8, addend: 0x0, symName: __ZNSt3__115basic_streambufIcNS_11char_traitsIcEEE6sbumpcB8ue170006Ev, symObjAddr: 0x1ED8, symBinAddr: 0x1000071C0, symSize: 0x78 }
  - { offsetInCU: 0x1568D, offset: 0x1E9DD, size: 0x8, addend: 0x0, symName: __ZNSt3__111char_traitsIcE12to_char_typeB8ue170006Ei, symObjAddr: 0x1F78, symBinAddr: 0x100007238, symSize: 0x18 }
  - { offsetInCU: 0x156B0, offset: 0x1EA00, size: 0x8, addend: 0x0, symName: __ZNSt3__111char_traitsIcE2eqEcc, symObjAddr: 0x1F90, symBinAddr: 0x100007250, symSize: 0x28 }
  - { offsetInCU: 0x156E1, offset: 0x1EA31, size: 0x8, addend: 0x0, symName: __ZNKSt3__112basic_stringIcNS_11char_traitsIcEENS_9allocatorIcEEE8max_sizeB8ue170006Ev, symObjAddr: 0x200C, symBinAddr: 0x100007278, symSize: 0xAC }
  - { offsetInCU: 0x15732, offset: 0x1EA82, size: 0x8, addend: 0x0, symName: __ZNSt3__18ios_base18__setstate_nothrowB8ue170006Ej, symObjAddr: 0x20B8, symBinAddr: 0x100007324, symSize: 0x64 }
  - { offsetInCU: 0x15766, offset: 0x1EAB6, size: 0x8, addend: 0x0, symName: __ZNKSt3__19basic_iosIcNS_11char_traitsIcEEE10exceptionsB8ue170006Ev, symObjAddr: 0x211C, symBinAddr: 0x100007388, symSize: 0x24 }
  - { offsetInCU: 0x1578B, offset: 0x1EADB, size: 0x8, addend: 0x0, symName: __ZNSt3__111char_traitsIcE11to_int_typeB8ue170006Ec, symObjAddr: 0x2290, symBinAddr: 0x1000073AC, symSize: 0x14 }
  - { offsetInCU: 0x157B9, offset: 0x1EB09, size: 0x8, addend: 0x0, symName: __ZNSt3__116allocator_traitsINS_9allocatorIcEEE8max_sizeB8ue170006IS2_vEEmRKS2_, symObjAddr: 0x2300, symBinAddr: 0x1000073C0, symSize: 0x24 }
  - { offsetInCU: 0x157E8, offset: 0x1EB38, size: 0x8, addend: 0x0, symName: __ZNKSt3__112basic_stringIcNS_11char_traitsIcEENS_9allocatorIcEEE7__allocB8ue170006Ev, symObjAddr: 0x2324, symBinAddr: 0x1000073E4, symSize: 0x24 }
  - { offsetInCU: 0x1580D, offset: 0x1EB5D, size: 0x8, addend: 0x0, symName: __ZNSt3__114numeric_limitsImE3maxB8ue170006Ev, symObjAddr: 0x2348, symBinAddr: 0x100007408, symSize: 0x14 }
  - { offsetInCU: 0x15821, offset: 0x1EB71, size: 0x8, addend: 0x0, symName: __ZNKSt3__19allocatorIcE8max_sizeB8ue170006Ev, symObjAddr: 0x235C, symBinAddr: 0x10000741C, symSize: 0x14 }
  - { offsetInCU: 0x15846, offset: 0x1EB96, size: 0x8, addend: 0x0, symName: __ZNKSt3__117__compressed_pairINS_12basic_stringIcNS_11char_traitsIcEENS_9allocatorIcEEE5__repES5_E6secondB8ue170006Ev, symObjAddr: 0x2370, symBinAddr: 0x100007430, symSize: 0x24 }
  - { offsetInCU: 0x1586B, offset: 0x1EBBB, size: 0x8, addend: 0x0, symName: __ZNKSt3__122__compressed_pair_elemINS_9allocatorIcEELi1ELb1EE5__getB8ue170006Ev, symObjAddr: 0x2394, symBinAddr: 0x100007454, symSize: 0x14 }
  - { offsetInCU: 0x15890, offset: 0x1EBE0, size: 0x8, addend: 0x0, symName: __ZNSt3__123__libcpp_numeric_limitsImLb1EE3maxB8ue170006Ev, symObjAddr: 0x23A8, symBinAddr: 0x100007468, symSize: 0x8 }
  - { offsetInCU: 0x158A4, offset: 0x1EBF4, size: 0x8, addend: 0x0, symName: __ZNKSt3__18ios_base10exceptionsB8ue170006Ev, symObjAddr: 0x23B0, symBinAddr: 0x100007470, symSize: 0x18 }
  - { offsetInCU: 0x158CB, offset: 0x1EC1B, size: 0x8, addend: 0x0, symName: __ZNKSt3__19basic_iosIcNS_11char_traitsIcEEE4failB8ue170006Ev, symObjAddr: 0x242C, symBinAddr: 0x100007488, symSize: 0x28 }
  - { offsetInCU: 0x158F0, offset: 0x1EC40, size: 0x8, addend: 0x0, symName: __ZNKSt3__18ios_base4failB8ue170006Ev, symObjAddr: 0x2454, symBinAddr: 0x1000074B0, symSize: 0x28 }
  - { offsetInCU: 0x15917, offset: 0x1EC67, size: 0x8, addend: 0x0, symName: __ZNKSt3__16vectorIPN6seneca11WorkstationENS_9allocatorIS3_EEE11__make_iterB8ue170006EPKS3_, symObjAddr: 0x247C, symBinAddr: 0x1000074D8, symSize: 0x30 }
  - { offsetInCU: 0x1594B, offset: 0x1EC9B, size: 0x8, addend: 0x0, symName: __ZNSt3__111__wrap_iterIPKPN6seneca11WorkstationEEC1B8ue170006ES5_, symObjAddr: 0x24AC, symBinAddr: 0x100007508, symSize: 0x34 }
  - { offsetInCU: 0x15981, offset: 0x1ECD1, size: 0x8, addend: 0x0, symName: __ZNSt3__111__wrap_iterIPKPN6seneca11WorkstationEEC2B8ue170006ES5_, symObjAddr: 0x24E0, symBinAddr: 0x10000753C, symSize: 0x20 }
  - { offsetInCU: 0x159CC, offset: 0x1ED1C, size: 0x8, addend: 0x0, symName: '__ZZN6seneca11LineManagerC1ERKNSt3__112basic_stringIcNS1_11char_traitsIcEENS1_9allocatorIcEEEERKNS1_6vectorIPNS_11WorkstationENS5_ISC_EEEEENK3$_0clESC_', symObjAddr: 0x2500, symBinAddr: 0x10000755C, symSize: 0x78 }
  - { offsetInCU: 0x15A02, offset: 0x1ED52, size: 0x8, addend: 0x0, symName: __ZNSt3__111__wrap_iterIPKPN6seneca11WorkstationEEppB8ue170006Ev, symObjAddr: 0x2578, symBinAddr: 0x1000075D4, symSize: 0x20 }
  - { offsetInCU: 0x15A31, offset: 0x1ED81, size: 0x8, addend: 0x0, symName: '__ZZN6seneca11LineManagerC1ERKNSt3__112basic_stringIcNS1_11char_traitsIcEENS1_9allocatorIcEEEERKNS1_6vectorIPNS_11WorkstationENS5_ISC_EEEEENK3$_1clESC_', symObjAddr: 0x272C, symBinAddr: 0x1000075F4, symSize: 0x78 }
  - { offsetInCU: 0x15A67, offset: 0x1EDB7, size: 0x8, addend: 0x0, symName: __ZNSt3__16vectorIPN6seneca11WorkstationENS_9allocatorIS3_EEE9__end_capB8ue170006Ev, symObjAddr: 0x27A4, symBinAddr: 0x10000766C, symSize: 0x28 }
  - { offsetInCU: 0x15A8C, offset: 0x1EDDC, size: 0x8, addend: 0x0, symName: __ZNSt3__16vectorIPN6seneca11WorkstationENS_9allocatorIS3_EEE22__construct_one_at_endB8ue170006IJRKS3_EEEvDpOT_, symObjAddr: 0x27CC, symBinAddr: 0x100007694, symSize: 0x90 }
  - { offsetInCU: 0x15ADA, offset: 0x1EE2A, size: 0x8, addend: 0x0, symName: __ZNSt3__16vectorIPN6seneca11WorkstationENS_9allocatorIS3_EEE21__push_back_slow_pathIRKS3_EEvOT_, symObjAddr: 0x285C, symBinAddr: 0x100007724, symSize: 0xD8 }
  - { offsetInCU: 0x15B37, offset: 0x1EE87, size: 0x8, addend: 0x0, symName: __ZNSt3__117__compressed_pairIPPN6seneca11WorkstationENS_9allocatorIS3_EEE5firstB8ue170006Ev, symObjAddr: 0x2934, symBinAddr: 0x1000077FC, symSize: 0x24 }
  - { offsetInCU: 0x15B5C, offset: 0x1EEAC, size: 0x8, addend: 0x0, symName: __ZNSt3__122__compressed_pair_elemIPPN6seneca11WorkstationELi0ELb0EE5__getB8ue170006Ev, symObjAddr: 0x2958, symBinAddr: 0x100007820, symSize: 0x14 }
  - { offsetInCU: 0x15B9A, offset: 0x1EEEA, size: 0x8, addend: 0x0, symName: __ZNSt3__16vectorIPN6seneca11WorkstationENS_9allocatorIS3_EEE21_ConstructTransactionC1B8ue170006ERS6_m, symObjAddr: 0x296C, symBinAddr: 0x100007834, symSize: 0x3C }
  - { offsetInCU: 0x15BE0, offset: 0x1EF30, size: 0x8, addend: 0x0, symName: __ZNSt3__116allocator_traitsINS_9allocatorIPN6seneca11WorkstationEEEE9constructB8ue170006IS4_JRKS4_EvEEvRS5_PT_DpOT0_, symObjAddr: 0x29A8, symBinAddr: 0x100007870, symSize: 0x34 }
  - { offsetInCU: 0x15C38, offset: 0x1EF88, size: 0x8, addend: 0x0, symName: __ZNSt3__16vectorIPN6seneca11WorkstationENS_9allocatorIS3_EEE21_ConstructTransactionD1B8ue170006Ev, symObjAddr: 0x29DC, symBinAddr: 0x1000078A4, symSize: 0x2C }
  - { offsetInCU: 0x15C60, offset: 0x1EFB0, size: 0x8, addend: 0x0, symName: __ZNSt3__16vectorIPN6seneca11WorkstationENS_9allocatorIS3_EEE21_ConstructTransactionC2B8ue170006ERS6_m, symObjAddr: 0x2A08, symBinAddr: 0x1000078D0, symSize: 0x44 }
  - { offsetInCU: 0x15CA7, offset: 0x1EFF7, size: 0x8, addend: 0x0, symName: __ZNSt3__19allocatorIPN6seneca11WorkstationEE9constructB8ue170006IS3_JRKS3_EEEvPT_DpOT0_, symObjAddr: 0x2A4C, symBinAddr: 0x100007914, symSize: 0x28 }
  - { offsetInCU: 0x15CFC, offset: 0x1F04C, size: 0x8, addend: 0x0, symName: __ZNSt3__16vectorIPN6seneca11WorkstationENS_9allocatorIS3_EEE21_ConstructTransactionD2B8ue170006Ev, symObjAddr: 0x2A74, symBinAddr: 0x10000793C, symSize: 0x20 }
  - { offsetInCU: 0x15D25, offset: 0x1F075, size: 0x8, addend: 0x0, symName: __ZNKSt3__16vectorIPN6seneca11WorkstationENS_9allocatorIS3_EEE11__recommendB8ue170006Em, symObjAddr: 0x2A94, symBinAddr: 0x10000795C, symSize: 0xB4 }
  - { offsetInCU: 0x15D79, offset: 0x1F0C9, size: 0x8, addend: 0x0, symName: __ZNSt3__114__split_bufferIPN6seneca11WorkstationERNS_9allocatorIS3_EEEC1EmmS6_, symObjAddr: 0x2B48, symBinAddr: 0x100007A10, symSize: 0x44 }
  - { offsetInCU: 0x15DCE, offset: 0x1F11E, size: 0x8, addend: 0x0, symName: __ZNSt3__114__split_bufferIPN6seneca11WorkstationERNS_9allocatorIS3_EEED1Ev, symObjAddr: 0x2C9C, symBinAddr: 0x100007B64, symSize: 0x2C }
  - { offsetInCU: 0x15DF9, offset: 0x1F149, size: 0x8, addend: 0x0, symName: __ZNKSt3__16vectorIPN6seneca11WorkstationENS_9allocatorIS3_EEE8max_sizeEv, symObjAddr: 0x2CC8, symBinAddr: 0x100007B90, symSize: 0x60 }
  - { offsetInCU: 0x15E20, offset: 0x1F170, size: 0x8, addend: 0x0, symName: __ZNKSt3__16vectorIPN6seneca11WorkstationENS_9allocatorIS3_EEE20__throw_length_errorB8ue170006Ev, symObjAddr: 0x2D28, symBinAddr: 0x100007BF0, symSize: 0x1C }
  - { offsetInCU: 0x15E4F, offset: 0x1F19F, size: 0x8, addend: 0x0, symName: __ZNSt3__116allocator_traitsINS_9allocatorIPN6seneca11WorkstationEEEE8max_sizeB8ue170006IS5_vEEmRKS5_, symObjAddr: 0x2D9C, symBinAddr: 0x100007C38, symSize: 0x24 }
  - { offsetInCU: 0x15E7E, offset: 0x1F1CE, size: 0x8, addend: 0x0, symName: __ZNKSt3__16vectorIPN6seneca11WorkstationENS_9allocatorIS3_EEE7__allocB8ue170006Ev, symObjAddr: 0x2DC0, symBinAddr: 0x100007C5C, symSize: 0x28 }
  - { offsetInCU: 0x15EA3, offset: 0x1F1F3, size: 0x8, addend: 0x0, symName: __ZNSt3__114numeric_limitsIlE3maxB8ue170006Ev, symObjAddr: 0x2DE8, symBinAddr: 0x100007C84, symSize: 0x14 }
  - { offsetInCU: 0x15EB7, offset: 0x1F207, size: 0x8, addend: 0x0, symName: __ZNKSt3__19allocatorIPN6seneca11WorkstationEE8max_sizeB8ue170006Ev, symObjAddr: 0x2E84, symBinAddr: 0x100007CEC, symSize: 0x14 }
  - { offsetInCU: 0x15EDC, offset: 0x1F22C, size: 0x8, addend: 0x0, symName: __ZNKSt3__117__compressed_pairIPPN6seneca11WorkstationENS_9allocatorIS3_EEE6secondB8ue170006Ev, symObjAddr: 0x2E98, symBinAddr: 0x100007D00, symSize: 0x24 }
  - { offsetInCU: 0x15F01, offset: 0x1F251, size: 0x8, addend: 0x0, symName: __ZNKSt3__122__compressed_pair_elemINS_9allocatorIPN6seneca11WorkstationEEELi1ELb1EE5__getB8ue170006Ev, symObjAddr: 0x2EBC, symBinAddr: 0x100007D24, symSize: 0x14 }
  - { offsetInCU: 0x15F26, offset: 0x1F276, size: 0x8, addend: 0x0, symName: __ZNSt3__123__libcpp_numeric_limitsIlLb1EE3maxB8ue170006Ev, symObjAddr: 0x2ED0, symBinAddr: 0x100007D38, symSize: 0x8 }
  - { offsetInCU: 0x15F3A, offset: 0x1F28A, size: 0x8, addend: 0x0, symName: __ZNSt12length_errorC1B8ue170006EPKc, symObjAddr: 0x2F3C, symBinAddr: 0x100007DA4, symSize: 0x34 }
  - { offsetInCU: 0x15F70, offset: 0x1F2C0, size: 0x8, addend: 0x0, symName: __ZNSt12length_errorC2B8ue170006EPKc, symObjAddr: 0x2F70, symBinAddr: 0x100007DD8, symSize: 0x4C }
  - { offsetInCU: 0x15FA6, offset: 0x1F2F6, size: 0x8, addend: 0x0, symName: __ZNSt3__114__split_bufferIPN6seneca11WorkstationERNS_9allocatorIS3_EEEC2EmmS6_, symObjAddr: 0x3010, symBinAddr: 0x100007E24, symSize: 0xD4 }
  - { offsetInCU: 0x16018, offset: 0x1F368, size: 0x8, addend: 0x0, symName: __ZNSt3__117__compressed_pairIPPN6seneca11WorkstationERNS_9allocatorIS3_EEEC1B8ue170006IDnS7_EEOT_OT0_, symObjAddr: 0x30E4, symBinAddr: 0x100007EF8, symSize: 0x3C }
  - { offsetInCU: 0x1606E, offset: 0x1F3BE, size: 0x8, addend: 0x0, symName: __ZNSt3__114__split_bufferIPN6seneca11WorkstationERNS_9allocatorIS3_EEE7__allocB8ue170006Ev, symObjAddr: 0x3160, symBinAddr: 0x100007F74, symSize: 0x28 }
  - { offsetInCU: 0x16093, offset: 0x1F3E3, size: 0x8, addend: 0x0, symName: __ZNSt3__114__split_bufferIPN6seneca11WorkstationERNS_9allocatorIS3_EEE9__end_capB8ue170006Ev, symObjAddr: 0x3188, symBinAddr: 0x100007F9C, symSize: 0x28 }
  - { offsetInCU: 0x160B8, offset: 0x1F408, size: 0x8, addend: 0x0, symName: __ZNSt3__117__compressed_pairIPPN6seneca11WorkstationERNS_9allocatorIS3_EEEC2B8ue170006IDnS7_EEOT_OT0_, symObjAddr: 0x31B0, symBinAddr: 0x100007FC4, symSize: 0x48 }
  - { offsetInCU: 0x1610E, offset: 0x1F45E, size: 0x8, addend: 0x0, symName: __ZNSt3__122__compressed_pair_elemIRNS_9allocatorIPN6seneca11WorkstationEEELi1ELb0EEC2B8ue170006IS6_vEEOT_, symObjAddr: 0x31F8, symBinAddr: 0x10000800C, symSize: 0x20 }
  - { offsetInCU: 0x16150, offset: 0x1F4A0, size: 0x8, addend: 0x0, symName: __ZNSt3__19allocatorIPN6seneca11WorkstationEE8allocateB8ue170006Em, symObjAddr: 0x3218, symBinAddr: 0x10000802C, symSize: 0x58 }
  - { offsetInCU: 0x16183, offset: 0x1F4D3, size: 0x8, addend: 0x0, symName: __ZNSt3__117__compressed_pairIPPN6seneca11WorkstationERNS_9allocatorIS3_EEE6secondB8ue170006Ev, symObjAddr: 0x3354, symBinAddr: 0x100008168, symSize: 0x28 }
  - { offsetInCU: 0x161A8, offset: 0x1F4F8, size: 0x8, addend: 0x0, symName: __ZNSt3__122__compressed_pair_elemIRNS_9allocatorIPN6seneca11WorkstationEEELi1ELb0EE5__getB8ue170006Ev, symObjAddr: 0x337C, symBinAddr: 0x100008190, symSize: 0x18 }
  - { offsetInCU: 0x161CD, offset: 0x1F51D, size: 0x8, addend: 0x0, symName: __ZNSt3__117__compressed_pairIPPN6seneca11WorkstationERNS_9allocatorIS3_EEE5firstB8ue170006Ev, symObjAddr: 0x3394, symBinAddr: 0x1000081A8, symSize: 0x24 }
  - { offsetInCU: 0x161F2, offset: 0x1F542, size: 0x8, addend: 0x0, symName: __ZNSt3__116reverse_iteratorIPPN6seneca11WorkstationEEC1B8ue170006ES4_, symObjAddr: 0x3430, symBinAddr: 0x100008244, symSize: 0x34 }
  - { offsetInCU: 0x16228, offset: 0x1F578, size: 0x8, addend: 0x0, symName: __ZNKSt3__116reverse_iteratorIPPN6seneca11WorkstationEE4baseB8ue170006Ev, symObjAddr: 0x3464, symBinAddr: 0x100008278, symSize: 0x18 }
  - { offsetInCU: 0x1624D, offset: 0x1F59D, size: 0x8, addend: 0x0, symName: __ZNKSt3__16vectorIPN6seneca11WorkstationENS_9allocatorIS3_EEE14__annotate_newB8ue170006Em, symObjAddr: 0x34B8, symBinAddr: 0x1000082CC, symSize: 0xAC }
  - { offsetInCU: 0x162A4, offset: 0x1F5F4, size: 0x8, addend: 0x0, symName: __ZNKSt3__111__move_loopINS_17_ClassicAlgPolicyEEclB8ue170006INS_16reverse_iteratorIPPN6seneca11WorkstationEEES9_S9_EENS_4pairIT_T1_EESB_T0_SC_, symObjAddr: 0x3854, symBinAddr: 0x100008668, symSize: 0xA0 }
  - { offsetInCU: 0x16313, offset: 0x1F663, size: 0x8, addend: 0x0, symName: __ZNSt3__18_IterOpsINS_17_ClassicAlgPolicyEE11__iter_moveB8ue170006IRNS_16reverse_iteratorIPPN6seneca11WorkstationEEEEENS_9enable_ifIXsr12is_referenceIDTdeclsr3stdE7declvalIRT_EEEEE5valueEDTclsr3stdE4movedeclsr3stdE7declvalISD_EEEEE4typeEOSC_, symObjAddr: 0x3A88, symBinAddr: 0x10000889C, symSize: 0x28 }
  - { offsetInCU: 0x1633F, offset: 0x1F68F, size: 0x8, addend: 0x0, symName: __ZNKSt3__116reverse_iteratorIPPN6seneca11WorkstationEEdeB8ue170006Ev, symObjAddr: 0x3AB0, symBinAddr: 0x1000088C4, symSize: 0x28 }
  - { offsetInCU: 0x16372, offset: 0x1F6C2, size: 0x8, addend: 0x0, symName: __ZNSt3__116reverse_iteratorIPPN6seneca11WorkstationEEppB8ue170006Ev, symObjAddr: 0x3AD8, symBinAddr: 0x1000088EC, symSize: 0x20 }
  - { offsetInCU: 0x16397, offset: 0x1F6E7, size: 0x8, addend: 0x0, symName: __ZNSt3__18_IterOpsINS_17_ClassicAlgPolicyEE25__validate_iter_referenceB8ue170006IRNS_16reverse_iteratorIPPN6seneca11WorkstationEEEEEvv, symObjAddr: 0x3AF8, symBinAddr: 0x10000890C, symSize: 0x4 }
  - { offsetInCU: 0x163B5, offset: 0x1F705, size: 0x8, addend: 0x0, symName: __ZNSt3__118__unwrap_iter_implINS_16reverse_iteratorIPPN6seneca11WorkstationEEELb0EE8__unwrapB8ue170006ES6_, symObjAddr: 0x3AFC, symBinAddr: 0x100008910, symSize: 0x24 }
  - { offsetInCU: 0x163DD, offset: 0x1F72D, size: 0x8, addend: 0x0, symName: __ZNSt3__14pairINS_16reverse_iteratorIPPN6seneca11WorkstationEEES6_EC1B8ue170006IS6_S6_LPv0EEEOT_OT0_, symObjAddr: 0x3B20, symBinAddr: 0x100008934, symSize: 0x3C }
  - { offsetInCU: 0x1643A, offset: 0x1F78A, size: 0x8, addend: 0x0, symName: __ZNSt3__14pairINS_16reverse_iteratorIPPN6seneca11WorkstationEEES6_EC2B8ue170006IS6_S6_LPv0EEEOT_OT0_, symObjAddr: 0x3B5C, symBinAddr: 0x100008970, symSize: 0x34 }
  - { offsetInCU: 0x16498, offset: 0x1F7E8, size: 0x8, addend: 0x0, symName: __ZNSt3__118__unwrap_iter_implINS_16reverse_iteratorIPPN6seneca11WorkstationEEELb0EE8__rewrapB8ue170006ES6_S6_, symObjAddr: 0x3B90, symBinAddr: 0x1000089A4, symSize: 0x2C }
  - { offsetInCU: 0x164C6, offset: 0x1F816, size: 0x8, addend: 0x0, symName: __ZNSt3__116reverse_iteratorIPPN6seneca11WorkstationEEC2B8ue170006ES4_, symObjAddr: 0x3BBC, symBinAddr: 0x1000089D0, symSize: 0x28 }
  - { offsetInCU: 0x164FD, offset: 0x1F84D, size: 0x8, addend: 0x0, symName: __ZNSt3__114__split_bufferIPN6seneca11WorkstationERNS_9allocatorIS3_EEED2Ev, symObjAddr: 0x3BE4, symBinAddr: 0x1000089F8, symSize: 0x8C }
  - { offsetInCU: 0x16528, offset: 0x1F878, size: 0x8, addend: 0x0, symName: __ZNSt3__114__split_bufferIPN6seneca11WorkstationERNS_9allocatorIS3_EEE5clearB8ue170006Ev, symObjAddr: 0x3C70, symBinAddr: 0x100008A84, symSize: 0x28 }
  - { offsetInCU: 0x1654D, offset: 0x1F89D, size: 0x8, addend: 0x0, symName: __ZNKSt3__114__split_bufferIPN6seneca11WorkstationERNS_9allocatorIS3_EEE8capacityB8ue170006Ev, symObjAddr: 0x3C98, symBinAddr: 0x100008AAC, symSize: 0x40 }
  - { offsetInCU: 0x16572, offset: 0x1F8C2, size: 0x8, addend: 0x0, symName: __ZNSt3__114__split_bufferIPN6seneca11WorkstationERNS_9allocatorIS3_EEE17__destruct_at_endB8ue170006EPS3_, symObjAddr: 0x3CD8, symBinAddr: 0x100008AEC, symSize: 0x2C }
  - { offsetInCU: 0x165A5, offset: 0x1F8F5, size: 0x8, addend: 0x0, symName: __ZNSt3__114__split_bufferIPN6seneca11WorkstationERNS_9allocatorIS3_EEE17__destruct_at_endB8ue170006EPS3_NS_17integral_constantIbLb0EEE, symObjAddr: 0x3D04, symBinAddr: 0x100008B18, symSize: 0x80 }
  - { offsetInCU: 0x165E5, offset: 0x1F935, size: 0x8, addend: 0x0, symName: __ZNKSt3__114__split_bufferIPN6seneca11WorkstationERNS_9allocatorIS3_EEE9__end_capB8ue170006Ev, symObjAddr: 0x3D84, symBinAddr: 0x100008B98, symSize: 0x28 }
  - { offsetInCU: 0x1660A, offset: 0x1F95A, size: 0x8, addend: 0x0, symName: __ZNKSt3__117__compressed_pairIPPN6seneca11WorkstationERNS_9allocatorIS3_EEE5firstB8ue170006Ev, symObjAddr: 0x3DAC, symBinAddr: 0x100008BC0, symSize: 0x24 }
  - { offsetInCU: 0x1662F, offset: 0x1F97F, size: 0x8, addend: 0x0, symName: __ZNSt3__16vectorIPN6seneca11WorkstationENS_9allocatorIS3_EEE11__make_iterB8ue170006EPS3_, symObjAddr: 0x3DD0, symBinAddr: 0x100008BE4, symSize: 0x30 }
  - { offsetInCU: 0x16663, offset: 0x1F9B3, size: 0x8, addend: 0x0, symName: __ZNSt3__111__wrap_iterIPPN6seneca11WorkstationEEC1B8ue170006ES4_, symObjAddr: 0x3E00, symBinAddr: 0x100008C14, symSize: 0x34 }
  - { offsetInCU: 0x16699, offset: 0x1F9E9, size: 0x8, addend: 0x0, symName: __ZNSt3__111__wrap_iterIPPN6seneca11WorkstationEEC2B8ue170006ES4_, symObjAddr: 0x3E34, symBinAddr: 0x100008C48, symSize: 0x20 }
  - { offsetInCU: 0x166DA, offset: 0x1FA2A, size: 0x8, addend: 0x0, symName: '__ZZN6seneca11LineManagerC1ERKNSt3__112basic_stringIcNS1_11char_traitsIcEENS1_9allocatorIcEEEERKNS1_6vectorIPNS_11WorkstationENS5_ISC_EEEEENK3$_2clESC_', symObjAddr: 0x3E88, symBinAddr: 0x100008C9C, symSize: 0x60 }
  - { offsetInCU: 0x1673B, offset: 0x1FA8B, size: 0x8, addend: 0x0, symName: __ZNSt3__111__wrap_iterIPPN6seneca11WorkstationEEppB8ue170006Ev, symObjAddr: 0x3EE8, symBinAddr: 0x100008CFC, symSize: 0x20 }
  - { offsetInCU: 0x16760, offset: 0x1FAB0, size: 0x8, addend: 0x0, symName: __ZNKSt3__111__wrap_iterIPPN6seneca11WorkstationEE4baseB8ue170006Ev, symObjAddr: 0x3F50, symBinAddr: 0x100008D64, symSize: 0x18 }
  - { offsetInCU: 0x1678F, offset: 0x1FADF, size: 0x8, addend: 0x0, symName: '__ZZZN6seneca11LineManagerC1ERKNSt3__112basic_stringIcNS1_11char_traitsIcEENS1_9allocatorIcEEEERKNS1_6vectorIPNS_11WorkstationENS5_ISC_EEEEENK3$_2clESC_ENKUlSC_E_clESC_', symObjAddr: 0x4000, symBinAddr: 0x100008E14, symSize: 0x44 }
  - { offsetInCU: 0x167C5, offset: 0x1FB15, size: 0x8, addend: 0x0, symName: __ZNKSt3__15dequeIN6seneca13CustomerOrderENS_9allocatorIS2_EEE6__sizeB8ue170006Ev, symObjAddr: 0x4044, symBinAddr: 0x100008E58, symSize: 0x28 }
  - { offsetInCU: 0x167EA, offset: 0x1FB3A, size: 0x8, addend: 0x0, symName: __ZNKSt3__117__compressed_pairImNS_9allocatorIN6seneca13CustomerOrderEEEE5firstB8ue170006Ev, symObjAddr: 0x406C, symBinAddr: 0x100008E80, symSize: 0x24 }
  - { offsetInCU: 0x1680F, offset: 0x1FB5F, size: 0x8, addend: 0x0, symName: __ZNKSt3__122__compressed_pair_elemImLi0ELb0EE5__getB8ue170006Ev, symObjAddr: 0x4090, symBinAddr: 0x100008EA4, symSize: 0x14 }
  - { offsetInCU: 0x16834, offset: 0x1FB84, size: 0x8, addend: 0x0, symName: __ZNSt3__16vectorIPN6seneca11WorkstationENS_9allocatorIS3_EEE19__copy_assign_allocB8ue170006ERKS6_, symObjAddr: 0x40A4, symBinAddr: 0x100008EB8, symSize: 0x2C }
  - { offsetInCU: 0x16868, offset: 0x1FBB8, size: 0x8, addend: 0x0, symName: __ZNSt3__16vectorIPN6seneca11WorkstationENS_9allocatorIS3_EEE6assignIPS3_Li0EEEvT_S9_, symObjAddr: 0x40D0, symBinAddr: 0x100008EE4, symSize: 0x5C }
  - { offsetInCU: 0x168BD, offset: 0x1FC0D, size: 0x8, addend: 0x0, symName: __ZNSt3__16vectorIPN6seneca11WorkstationENS_9allocatorIS3_EEE19__copy_assign_allocB8ue170006ERKS6_NS_17integral_constantIbLb0EEE, symObjAddr: 0x412C, symBinAddr: 0x100008F40, symSize: 0x14 }
  - { offsetInCU: 0x168FA, offset: 0x1FC4A, size: 0x8, addend: 0x0, symName: __ZNSt3__16vectorIPN6seneca11WorkstationENS_9allocatorIS3_EEE18__assign_with_sizeB8ue170006IPS3_S8_EEvT_T0_l, symObjAddr: 0x4140, symBinAddr: 0x100008F54, symSize: 0x164 }
  - { offsetInCU: 0x169A9, offset: 0x1FCF9, size: 0x8, addend: 0x0, symName: __ZNSt3__16vectorIPN6seneca11WorkstationENS_9allocatorIS3_EEE18__construct_at_endIPS3_S8_EEvT_T0_m, symObjAddr: 0x4344, symBinAddr: 0x100009158, symSize: 0x8C }
  - { offsetInCU: 0x16A1E, offset: 0x1FD6E, size: 0x8, addend: 0x0, symName: __ZNSt3__16vectorIPN6seneca11WorkstationENS_9allocatorIS3_EEE17__destruct_at_endB8ue170006EPS3_, symObjAddr: 0x4414, symBinAddr: 0x100009228, symSize: 0x4C }
  - { offsetInCU: 0x16A61, offset: 0x1FDB1, size: 0x8, addend: 0x0, symName: __ZNSt3__16vectorIPN6seneca11WorkstationENS_9allocatorIS3_EEE13__vdeallocateEv, symObjAddr: 0x4460, symBinAddr: 0x100009274, symSize: 0x94 }
  - { offsetInCU: 0x16A88, offset: 0x1FDD8, size: 0x8, addend: 0x0, symName: __ZNSt3__16vectorIPN6seneca11WorkstationENS_9allocatorIS3_EEE11__vallocateB8ue170006Em, symObjAddr: 0x44F4, symBinAddr: 0x100009308, symSize: 0xAC }
  - { offsetInCU: 0x16AE9, offset: 0x1FE39, size: 0x8, addend: 0x0, symName: __ZNSt3__14pairIPPN6seneca11WorkstationES4_EC1B8ue170006IS4_S4_LPv0EEEOT_OT0_, symObjAddr: 0x47C4, symBinAddr: 0x1000095D8, symSize: 0x3C }
  - { offsetInCU: 0x16B46, offset: 0x1FE96, size: 0x8, addend: 0x0, symName: __ZNSt3__14pairIPPN6seneca11WorkstationES4_EC2B8ue170006IS4_S4_LPv0EEEOT_OT0_, symObjAddr: 0x4800, symBinAddr: 0x100009614, symSize: 0x34 }
  - { offsetInCU: 0x16BA4, offset: 0x1FEF4, size: 0x8, addend: 0x0, symName: __ZNSt3__118__unwrap_iter_implIPPN6seneca11WorkstationELb1EE8__unwrapB8ue170006ES4_, symObjAddr: 0x4834, symBinAddr: 0x100009648, symSize: 0x24 }
  - { offsetInCU: 0x16BC7, offset: 0x1FF17, size: 0x8, addend: 0x0, symName: __ZNSt3__118__unwrap_iter_implIPPN6seneca11WorkstationELb1EE8__rewrapB8ue170006ES4_S4_, symObjAddr: 0x4858, symBinAddr: 0x10000966C, symSize: 0x50 }
  - { offsetInCU: 0x16C02, offset: 0x1FF52, size: 0x8, addend: 0x0, symName: __ZNKSt3__114__copy_trivialclB8ue170006IPN6seneca11WorkstationES4_Li0EEENS_4pairIPT_PT0_EES7_S7_S9_, symObjAddr: 0x49A0, symBinAddr: 0x1000097B4, symSize: 0x48 }
  - { offsetInCU: 0x16C6A, offset: 0x1FFBA, size: 0x8, addend: 0x0, symName: __ZNSt3__14pairIPPN6seneca11WorkstationES4_EC1B8ue170006IRS4_S4_LPv0EEEOT_OT0_, symObjAddr: 0x4B30, symBinAddr: 0x100009944, symSize: 0x3C }
  - { offsetInCU: 0x16CC7, offset: 0x20017, size: 0x8, addend: 0x0, symName: __ZNSt3__14pairIPPN6seneca11WorkstationES4_EC2B8ue170006IRS4_S4_LPv0EEEOT_OT0_, symObjAddr: 0x4B6C, symBinAddr: 0x100009980, symSize: 0x34 }
  - { offsetInCU: 0x16D25, offset: 0x20075, size: 0x8, addend: 0x0, symName: __ZNKSt3__16vectorIPN6seneca11WorkstationENS_9allocatorIS3_EEE17__annotate_shrinkB8ue170006Em, symObjAddr: 0x4BA0, symBinAddr: 0x1000099B4, symSize: 0xB4 }
  - { offsetInCU: 0x16D59, offset: 0x200A9, size: 0x8, addend: 0x0, symName: __ZNSt3__16vectorIPN6seneca11WorkstationENS_9allocatorIS3_EEE5clearB8ue170006Ev, symObjAddr: 0x4C54, symBinAddr: 0x100009A68, symSize: 0x44 }
  - { offsetInCU: 0x3E, offset: 0x20228, size: 0x8, addend: 0x0, symName: __ZN6seneca7Station12m_widthFieldE, symObjAddr: 0x1B958, symBinAddr: 0x100018008, symSize: 0x0 }
  - { offsetInCU: 0x130, offset: 0x2031A, size: 0x8, addend: 0x0, symName: __ZN6seneca7Station12id_generatorE, symObjAddr: 0x1B960, symBinAddr: 0x100018010, symSize: 0x0 }
  - { offsetInCU: 0x3FE5, offset: 0x241CF, size: 0x8, addend: 0x0, symName: __ZNSt3__15rightB8ue170006ERNS_8ios_baseE, symObjAddr: 0x8BC, symBinAddr: 0x10000A114, symSize: 0x30 }
  - { offsetInCU: 0x601E, offset: 0x26208, size: 0x8, addend: 0x0, symName: __ZN6seneca7StationC2ERKNSt3__112basic_stringIcNS1_11char_traitsIcEENS1_9allocatorIcEEEE, symObjAddr: 0x0, symBinAddr: 0x100009AD4, symSize: 0x224 }
  - { offsetInCU: 0x609F, offset: 0x26289, size: 0x8, addend: 0x0, symName: __ZN6seneca7StationC1ERKNSt3__112basic_stringIcNS1_11char_traitsIcEENS1_9allocatorIcEEEE, symObjAddr: 0x2F4, symBinAddr: 0x100009CF8, symSize: 0x34 }
  - { offsetInCU: 0x60D8, offset: 0x262C2, size: 0x8, addend: 0x0, symName: __ZN6seneca7Station14updateQuantityEv, symObjAddr: 0x328, symBinAddr: 0x100009D2C, symSize: 0x70 }
  - { offsetInCU: 0x60FF, offset: 0x262E9, size: 0x8, addend: 0x0, symName: __ZNK6seneca7Station7displayERNSt3__113basic_ostreamIcNS1_11char_traitsIcEEEEb, symObjAddr: 0x398, symBinAddr: 0x100009D9C, symSize: 0x378 }
  - { offsetInCU: 0x3F, offset: 0x26392, size: 0x8, addend: 0x0, symName: _cout, symObjAddr: 0x75984, symBinAddr: 0x100018014, symSize: 0x0 }
  - { offsetInCU: 0xF1D5, offset: 0x35528, size: 0x8, addend: 0x0, symName: __ZNSt3__1neB8ue170006IPN6seneca13CustomerOrderEEEbRKNS_11__wrap_iterIT_EES8_, symObjAddr: 0x17D8, symBinAddr: 0x10000B6BC, symSize: 0x34 }
  - { offsetInCU: 0xF218, offset: 0x3556B, size: 0x8, addend: 0x0, symName: __ZNSt3__1neB8ue170006ERKNS_16__deque_iteratorIN6seneca13CustomerOrderEPS2_RS2_PS3_lLl64EEES8_, symObjAddr: 0x1B04, symBinAddr: 0x10000B9A8, symSize: 0x34 }
  - { offsetInCU: 0xF255, offset: 0x355A8, size: 0x8, addend: 0x0, symName: __ZNSt3__1eqB8ue170006IPN6seneca13CustomerOrderEEEbRKNS_11__wrap_iterIT_EES8_, symObjAddr: 0x1CA4, symBinAddr: 0x10000BABC, symSize: 0x48 }
  - { offsetInCU: 0xF298, offset: 0x355EB, size: 0x8, addend: 0x0, symName: __ZNSt3__112__to_addressB8ue170006IN6seneca13CustomerOrderEEEPT_S4_, symObjAddr: 0x29BC, symBinAddr: 0x10000C7AC, symSize: 0x14 }
  - { offsetInCU: 0xF2CD, offset: 0x35620, size: 0x8, addend: 0x0, symName: __ZNSt3__112__to_addressB8ue170006IPN6seneca13CustomerOrderEEEPT_S5_, symObjAddr: 0x2F10, symBinAddr: 0x10000CB78, symSize: 0x14 }
  - { offsetInCU: 0xFDF7, offset: 0x3614A, size: 0x8, addend: 0x0, symName: __ZNSt3__1plB8ue170006IcNS_11char_traitsIcEENS_9allocatorIcEEEENS_12basic_stringIT_T0_T1_EEOS9_PKS6_, symObjAddr: 0x4818, symBinAddr: 0x10000D34C, symSize: 0x40 }
  - { offsetInCU: 0xFE5A, offset: 0x361AD, size: 0x8, addend: 0x0, symName: __ZNSt3__119__allocate_at_leastB8ue170006INS_9allocatorIN6seneca13CustomerOrderEEEEENS_19__allocation_resultINS_16allocator_traitsIT_E7pointerEEERS7_m, symObjAddr: 0x76BC, symBinAddr: 0x10000E28C, symSize: 0x40 }
  - { offsetInCU: 0xFE9D, offset: 0x361F0, size: 0x8, addend: 0x0, symName: __ZNSt3__142__uninitialized_allocator_move_if_noexceptB8ue170006INS_9allocatorIN6seneca13CustomerOrderEEENS_16reverse_iteratorIPS3_EES7_S7_EET2_RT_T0_T1_S8_, symObjAddr: 0x7870, symBinAddr: 0x10000E440, symSize: 0x12C }
  - { offsetInCU: 0xFF3D, offset: 0x36290, size: 0x8, addend: 0x0, symName: __ZNSt3__14swapB8ue170006IPN6seneca13CustomerOrderEEENS_9enable_ifIXaasr21is_move_constructibleIT_EE5valuesr18is_move_assignableIS5_EE5valueEvE4typeERS5_S8_, symObjAddr: 0x79E8, symBinAddr: 0x10000E5B8, symSize: 0x3C }
  - { offsetInCU: 0xFF8E, offset: 0x362E1, size: 0x8, addend: 0x0, symName: __ZNSt3__122__make_exception_guardB8ue170006INS_29_AllocatorDestroyRangeReverseINS_9allocatorIN6seneca13CustomerOrderEEENS_16reverse_iteratorIPS4_EEEEEENS_28__exception_guard_exceptionsIT_EESB_, symObjAddr: 0x7AD0, symBinAddr: 0x10000E6A0, symSize: 0x4C }
  - { offsetInCU: 0xFFC4, offset: 0x36317, size: 0x8, addend: 0x0, symName: __ZNSt3__1neB8ue170006IPN6seneca13CustomerOrderES3_EEbRKNS_16reverse_iteratorIT_EERKNS4_IT0_EE, symObjAddr: 0x7B60, symBinAddr: 0x10000E730, symSize: 0x48 }
  - { offsetInCU: 0x10010, offset: 0x36363, size: 0x8, addend: 0x0, symName: __ZNSt3__112__to_addressB8ue170006INS_16reverse_iteratorIPN6seneca13CustomerOrderEEEvEEu7__decayIDTclsr19__to_address_helperIT_EE6__callclsr3stdE7declvalIRKS6_EEEEES8_, symObjAddr: 0x7BA8, symBinAddr: 0x10000E778, symSize: 0x24 }
  - { offsetInCU: 0x10071, offset: 0x363C4, size: 0x8, addend: 0x0, symName: __ZNSt3__119__allocator_destroyB8ue170006INS_9allocatorIN6seneca13CustomerOrderEEENS_16reverse_iteratorINS5_IPS3_EEEES8_EEvRT_T0_T1_, symObjAddr: 0x7E58, symBinAddr: 0x10000EA28, symSize: 0x70 }
  - { offsetInCU: 0x100D6, offset: 0x36429, size: 0x8, addend: 0x0, symName: __ZNSt3__1neB8ue170006INS_16reverse_iteratorIPN6seneca13CustomerOrderEEES5_EEbRKNS1_IT_EERKNS1_IT0_EE, symObjAddr: 0x7F04, symBinAddr: 0x10000EAD4, symSize: 0x60 }
  - { offsetInCU: 0x10122, offset: 0x36475, size: 0x8, addend: 0x0, symName: __ZNSt3__112__to_addressB8ue170006INS_16reverse_iteratorINS1_IPN6seneca13CustomerOrderEEEEEvEEu7__decayIDTclsr19__to_address_helperIT_EE6__callclsr3stdE7declvalIRKS7_EEEEES9_, symObjAddr: 0x7F64, symBinAddr: 0x10000EB34, symSize: 0x24 }
  - { offsetInCU: 0x1052A, offset: 0x3687D, size: 0x8, addend: 0x0, symName: __ZNSt3__14swapB8ue170006IPPN6seneca13CustomerOrderEEENS_9enable_ifIXaasr21is_move_constructibleIT_EE5valuesr18is_move_assignableIS6_EE5valueEvE4typeERS6_S9_, symObjAddr: 0x9550, symBinAddr: 0x100010120, symSize: 0x3C }
  - { offsetInCU: 0x1057B, offset: 0x368CE, size: 0x8, addend: 0x0, symName: __ZNSt3__14moveB8ue170006IPPN6seneca13CustomerOrderES4_EET0_T_S6_S5_, symObjAddr: 0x9634, symBinAddr: 0x100010204, symSize: 0x40 }
  - { offsetInCU: 0x105D5, offset: 0x36928, size: 0x8, addend: 0x0, symName: __ZNSt3__16__moveB8ue170006INS_17_ClassicAlgPolicyEPPN6seneca13CustomerOrderES5_S5_EENS_4pairIT0_T2_EES7_T1_S8_, symObjAddr: 0x973C, symBinAddr: 0x10001030C, symSize: 0x44 }
  - { offsetInCU: 0x10641, offset: 0x36994, size: 0x8, addend: 0x0, symName: __ZNSt3__123__dispatch_copy_or_moveB8ue170006INS_17_ClassicAlgPolicyENS_11__move_loopIS1_EENS_14__move_trivialEPPN6seneca13CustomerOrderES8_S8_EENS_4pairIT2_T4_EESA_T3_SB_, symObjAddr: 0x9780, symBinAddr: 0x100010350, symSize: 0x44 }
  - { offsetInCU: 0x106BF, offset: 0x36A12, size: 0x8, addend: 0x0, symName: __ZNSt3__121__unwrap_and_dispatchB8ue170006INS_10__overloadINS_11__move_loopINS_17_ClassicAlgPolicyEEENS_14__move_trivialEEEPPN6seneca13CustomerOrderESA_SA_Li0EEENS_4pairIT0_T2_EESC_T1_SD_, symObjAddr: 0x97C4, symBinAddr: 0x100010394, symSize: 0xB4 }
  - { offsetInCU: 0x1074E, offset: 0x36AA1, size: 0x8, addend: 0x0, symName: __ZNSt3__114__unwrap_rangeB8ue170006IPPN6seneca13CustomerOrderES4_EENS_4pairIT0_S6_EET_S8_, symObjAddr: 0x9878, symBinAddr: 0x100010448, symSize: 0x60 }
  - { offsetInCU: 0x10916, offset: 0x36C69, size: 0x8, addend: 0x0, symName: __ZNSt3__113__unwrap_iterB8ue170006IPPN6seneca13CustomerOrderENS_18__unwrap_iter_implIS4_Lb1EEELi0EEEDTclsrT0_8__unwrapclsr3stdE7declvalIT_EEEES8_, symObjAddr: 0x9920, symBinAddr: 0x1000104F0, symSize: 0x24 }
  - { offsetInCU: 0x1095B, offset: 0x36CAE, size: 0x8, addend: 0x0, symName: __ZNSt3__19make_pairB8ue170006IPPN6seneca13CustomerOrderES4_EENS_4pairINS_18__unwrap_ref_decayIT_E4typeENS6_IT0_E4typeEEEOS7_OSA_, symObjAddr: 0x9944, symBinAddr: 0x100010514, symSize: 0x38 }
  - { offsetInCU: 0x109AA, offset: 0x36CFD, size: 0x8, addend: 0x0, symName: __ZNSt3__114__rewrap_rangeB8ue170006IPPN6seneca13CustomerOrderES4_EET_S5_T0_, symObjAddr: 0x997C, symBinAddr: 0x10001054C, symSize: 0x2C }
  - { offsetInCU: 0x109F6, offset: 0x36D49, size: 0x8, addend: 0x0, symName: __ZNSt3__113__rewrap_iterB8ue170006IPPN6seneca13CustomerOrderES4_NS_18__unwrap_iter_implIS4_Lb1EEEEET_S7_T0_, symObjAddr: 0x99A8, symBinAddr: 0x100010578, symSize: 0x3C }
  - { offsetInCU: 0x10A4B, offset: 0x36D9E, size: 0x8, addend: 0x0, symName: __ZNSt3__119__copy_trivial_implB8ue170006IPN6seneca13CustomerOrderES3_EENS_4pairIPT_PT0_EES6_S6_S8_, symObjAddr: 0x99E4, symBinAddr: 0x1000105B4, symSize: 0x80 }
  - { offsetInCU: 0x10AB3, offset: 0x36E06, size: 0x8, addend: 0x0, symName: __ZNSt3__119__constexpr_memmoveB8ue170006IPN6seneca13CustomerOrderES3_Li0EEEPT_S5_PT0_NS_15__element_countE, symObjAddr: 0x9A64, symBinAddr: 0x100010634, symSize: 0x64 }
  - { offsetInCU: 0x10B22, offset: 0x36E75, size: 0x8, addend: 0x0, symName: __ZNSt3__19make_pairB8ue170006IRPPN6seneca13CustomerOrderES4_EENS_4pairINS_18__unwrap_ref_decayIT_E4typeENS7_IT0_E4typeEEEOS8_OSB_, symObjAddr: 0x9AC8, symBinAddr: 0x100010698, symSize: 0x38 }
  - { offsetInCU: 0x10BC5, offset: 0x36F18, size: 0x8, addend: 0x0, symName: __ZNSt3__18distanceB8ue170006INS_13move_iteratorIPPN6seneca13CustomerOrderEEEEENS_15iterator_traitsIT_E15difference_typeES8_S8_, symObjAddr: 0x9D30, symBinAddr: 0x100010900, symSize: 0x3C }
  - { offsetInCU: 0x10C08, offset: 0x36F5B, size: 0x8, addend: 0x0, symName: __ZNSt3__110__distanceB8ue170006INS_13move_iteratorIPPN6seneca13CustomerOrderEEEEENS_15iterator_traitsIT_E15difference_typeES8_S8_NS_26random_access_iterator_tagE, symObjAddr: 0x9F34, symBinAddr: 0x100010B04, symSize: 0x30 }
  - { offsetInCU: 0x10C56, offset: 0x36FA9, size: 0x8, addend: 0x0, symName: __ZNSt3__1miB8ue170006IPPN6seneca13CustomerOrderES4_EEDTmicldtfp_4baseEcldtfp0_4baseEERKNS_13move_iteratorIT_EERKNS6_IT0_EE, symObjAddr: 0x9F64, symBinAddr: 0x100010B34, symSize: 0x48 }
  - { offsetInCU: 0x10CA5, offset: 0x36FF8, size: 0x8, addend: 0x0, symName: __ZNSt3__113move_backwardB8ue170006IPPN6seneca13CustomerOrderES4_EET0_T_S6_S5_, symObjAddr: 0xA00C, symBinAddr: 0x100010BDC, symSize: 0x40 }
  - { offsetInCU: 0x10CFF, offset: 0x37052, size: 0x8, addend: 0x0, symName: __ZNSt3__115__move_backwardB8ue170006INS_17_ClassicAlgPolicyEPPN6seneca13CustomerOrderES5_S5_EENS_4pairIT0_T2_EES7_T1_S8_, symObjAddr: 0xA04C, symBinAddr: 0x100010C1C, symSize: 0x44 }
  - { offsetInCU: 0x10D6B, offset: 0x370BE, size: 0x8, addend: 0x0, symName: __ZNSt3__123__dispatch_copy_or_moveB8ue170006INS_17_ClassicAlgPolicyENS_20__move_backward_loopIS1_EENS_23__move_backward_trivialEPPN6seneca13CustomerOrderES8_S8_EENS_4pairIT2_T4_EESA_T3_SB_, symObjAddr: 0xA090, symBinAddr: 0x100010C60, symSize: 0x44 }
  - { offsetInCU: 0x10DE9, offset: 0x3713C, size: 0x8, addend: 0x0, symName: __ZNSt3__121__unwrap_and_dispatchB8ue170006INS_10__overloadINS_20__move_backward_loopINS_17_ClassicAlgPolicyEEENS_23__move_backward_trivialEEEPPN6seneca13CustomerOrderESA_SA_Li0EEENS_4pairIT0_T2_EESC_T1_SD_, symObjAddr: 0xA0D4, symBinAddr: 0x100010CA4, symSize: 0xB4 }
  - { offsetInCU: 0x10EBF, offset: 0x37212, size: 0x8, addend: 0x0, symName: __ZNSt3__128__copy_backward_trivial_implB8ue170006IPN6seneca13CustomerOrderES3_EENS_4pairIPT_PT0_EES6_S6_S8_, symObjAddr: 0xA1D0, symBinAddr: 0x100010DA0, symSize: 0x90 }
  - { offsetInCU: 0x10F27, offset: 0x3727A, size: 0x8, addend: 0x0, symName: __ZNSt3__19make_pairB8ue170006IRPPN6seneca13CustomerOrderES5_EENS_4pairINS_18__unwrap_ref_decayIT_E4typeENS7_IT0_E4typeEEEOS8_OSB_, symObjAddr: 0xA260, symBinAddr: 0x100010E30, symSize: 0x38 }
  - { offsetInCU: 0x10F76, offset: 0x372C9, size: 0x8, addend: 0x0, symName: __ZNSt3__119__allocate_at_leastB8ue170006INS_9allocatorIPN6seneca13CustomerOrderEEEEENS_19__allocation_resultINS_16allocator_traitsIT_E7pointerEEERS8_m, symObjAddr: 0xA418, symBinAddr: 0x100010FE8, symSize: 0x40 }
  - { offsetInCU: 0x10FB9, offset: 0x3730C, size: 0x8, addend: 0x0, symName: __ZNSt3__1eqB8ue170006ERKNS_16__deque_iteratorIN6seneca13CustomerOrderEPS2_RS2_PS3_lLl64EEES8_, symObjAddr: 0xAB20, symBinAddr: 0x1000116F0, symSize: 0x30 }
  - { offsetInCU: 0x11E51, offset: 0x381A4, size: 0x8, addend: 0x0, symName: __ZNSt3__16vectorIN6seneca13CustomerOrderENS_9allocatorIS2_EEE26__swap_out_circular_bufferERNS_14__split_bufferIS2_RS4_EE, symObjAddr: 0x735C, symBinAddr: 0x10000DF2C, symSize: 0x110 }
  - { offsetInCU: 0x13CB9, offset: 0x3A00C, size: 0x8, addend: 0x0, symName: _main, symObjAddr: 0x0, symBinAddr: 0x10000A144, symSize: 0xF14 }
  - { offsetInCU: 0x13FA0, offset: 0x3A2F3, size: 0x8, addend: 0x0, symName: __ZNSt3__16vectorIN6seneca13CustomerOrderENS_9allocatorIS2_EEEC1B8ue170006Ev, symObjAddr: 0x100C, symBinAddr: 0x10000B058, symSize: 0x2C }
  - { offsetInCU: 0x13FC8, offset: 0x3A31B, size: 0x8, addend: 0x0, symName: __ZL12loadFromFileIN6seneca11WorkstationEEvPKcRNSt3__16vectorIPT_NS4_9allocatorIS7_EEEE, symObjAddr: 0x1038, symBinAddr: 0x10000B084, symSize: 0x2E8 }
  - { offsetInCU: 0x14028, offset: 0x3A37B, size: 0x8, addend: 0x0, symName: __ZNSt3__16vectorIPN6seneca11WorkstationENS_9allocatorIS3_EEEixB8ue170006Em, symObjAddr: 0x1438, symBinAddr: 0x10000B36C, symSize: 0x24 }
  - { offsetInCU: 0x1405E, offset: 0x3A3B1, size: 0x8, addend: 0x0, symName: __ZL12loadFromFileIN6seneca13CustomerOrderEEvPKcRNSt3__16vectorIT_NS4_9allocatorIS6_EEEE, symObjAddr: 0x14AC, symBinAddr: 0x10000B390, symSize: 0x2CC }
  - { offsetInCU: 0x140D2, offset: 0x3A425, size: 0x8, addend: 0x0, symName: __ZNSt3__16vectorIN6seneca13CustomerOrderENS_9allocatorIS2_EEE5beginB8ue170006Ev, symObjAddr: 0x1778, symBinAddr: 0x10000B65C, symSize: 0x30 }
  - { offsetInCU: 0x140F9, offset: 0x3A44C, size: 0x8, addend: 0x0, symName: __ZNSt3__16vectorIN6seneca13CustomerOrderENS_9allocatorIS2_EEE3endB8ue170006Ev, symObjAddr: 0x17A8, symBinAddr: 0x10000B68C, symSize: 0x30 }
  - { offsetInCU: 0x14120, offset: 0x3A473, size: 0x8, addend: 0x0, symName: __ZNKSt3__111__wrap_iterIPN6seneca13CustomerOrderEEdeB8ue170006Ev, symObjAddr: 0x180C, symBinAddr: 0x10000B6F0, symSize: 0x18 }
  - { offsetInCU: 0x14145, offset: 0x3A498, size: 0x8, addend: 0x0, symName: __ZNSt3__15dequeIN6seneca13CustomerOrderENS_9allocatorIS2_EEE9push_backEOS2_, symObjAddr: 0x1824, symBinAddr: 0x10000B708, symSize: 0xAC }
  - { offsetInCU: 0x1418A, offset: 0x3A4DD, size: 0x8, addend: 0x0, symName: __ZNSt3__111__wrap_iterIPN6seneca13CustomerOrderEEppB8ue170006Ev, symObjAddr: 0x18D0, symBinAddr: 0x10000B7B4, symSize: 0x20 }
  - { offsetInCU: 0x141B4, offset: 0x3A507, size: 0x8, addend: 0x0, symName: __ZNSt3__112basic_stringIcNS_11char_traitsIcEENS_9allocatorIcEEEC1B8ue170006ILi0EEEPKc, symObjAddr: 0x18F0, symBinAddr: 0x10000B7D4, symSize: 0x34 }
  - { offsetInCU: 0x14201, offset: 0x3A554, size: 0x8, addend: 0x0, symName: __ZN6seneca11LineManagerD1Ev, symObjAddr: 0x1924, symBinAddr: 0x10000B808, symSize: 0x2C }
  - { offsetInCU: 0x1422B, offset: 0x3A57E, size: 0x8, addend: 0x0, symName: __ZNSt3__15dequeIN6seneca13CustomerOrderENS_9allocatorIS2_EEE5beginB8ue170006Ev, symObjAddr: 0x1990, symBinAddr: 0x10000B834, symSize: 0xB8 }
  - { offsetInCU: 0x1425F, offset: 0x3A5B2, size: 0x8, addend: 0x0, symName: __ZNSt3__15dequeIN6seneca13CustomerOrderENS_9allocatorIS2_EEE3endB8ue170006Ev, symObjAddr: 0x1A48, symBinAddr: 0x10000B8EC, symSize: 0xBC }
  - { offsetInCU: 0x142A2, offset: 0x3A5F5, size: 0x8, addend: 0x0, symName: __ZNKSt3__116__deque_iteratorIN6seneca13CustomerOrderEPS2_RS2_PS3_lLl64EEdeB8ue170006Ev, symObjAddr: 0x1B38, symBinAddr: 0x10000B9DC, symSize: 0x18 }
  - { offsetInCU: 0x142C7, offset: 0x3A61A, size: 0x8, addend: 0x0, symName: __ZNSt3__116__deque_iteratorIN6seneca13CustomerOrderEPS2_RS2_PS3_lLl64EEppB8ue170006Ev, symObjAddr: 0x1B50, symBinAddr: 0x10000B9F4, symSize: 0x70 }
  - { offsetInCU: 0x142EC, offset: 0x3A63F, size: 0x8, addend: 0x0, symName: __ZN6seneca11WorkstationD1Ev, symObjAddr: 0x1BC0, symBinAddr: 0x10000BA64, symSize: 0x2C }
  - { offsetInCU: 0x14316, offset: 0x3A669, size: 0x8, addend: 0x0, symName: __ZNSt3__16vectorIN6seneca13CustomerOrderENS_9allocatorIS2_EEED1B8ue170006Ev, symObjAddr: 0x1BEC, symBinAddr: 0x10000BA90, symSize: 0x2C }
  - { offsetInCU: 0x1433E, offset: 0x3A691, size: 0x8, addend: 0x0, symName: __ZNKSt3__111__wrap_iterIPN6seneca13CustomerOrderEE4baseB8ue170006Ev, symObjAddr: 0x1CEC, symBinAddr: 0x10000BB04, symSize: 0x18 }
  - { offsetInCU: 0x14363, offset: 0x3A6B6, size: 0x8, addend: 0x0, symName: __ZN6seneca11LineManagerD2Ev, symObjAddr: 0x1D04, symBinAddr: 0x10000BB1C, symSize: 0x2C }
  - { offsetInCU: 0x1438D, offset: 0x3A6E0, size: 0x8, addend: 0x0, symName: __ZN6seneca11WorkstationD2Ev, symObjAddr: 0x1D30, symBinAddr: 0x10000BB48, symSize: 0x38 }
  - { offsetInCU: 0x143B7, offset: 0x3A70A, size: 0x8, addend: 0x0, symName: __ZNSt3__15dequeIN6seneca13CustomerOrderENS_9allocatorIS2_EEED1B8ue170006Ev, symObjAddr: 0x1D68, symBinAddr: 0x10000BB80, symSize: 0x2C }
  - { offsetInCU: 0x143DF, offset: 0x3A732, size: 0x8, addend: 0x0, symName: __ZN6seneca7StationD2Ev, symObjAddr: 0x1D94, symBinAddr: 0x10000BBAC, symSize: 0x3C }
  - { offsetInCU: 0x14409, offset: 0x3A75C, size: 0x8, addend: 0x0, symName: __ZNSt3__15dequeIN6seneca13CustomerOrderENS_9allocatorIS2_EEED2B8ue170006Ev, symObjAddr: 0x1DD0, symBinAddr: 0x10000BBE8, symSize: 0xA4 }
  - { offsetInCU: 0x1445D, offset: 0x3A7B0, size: 0x8, addend: 0x0, symName: __ZNSt3__15dequeIN6seneca13CustomerOrderENS_9allocatorIS2_EEE5clearEv, symObjAddr: 0x1E74, symBinAddr: 0x10000BC8C, symSize: 0x194 }
  - { offsetInCU: 0x144B7, offset: 0x3A80A, size: 0x8, addend: 0x0, symName: __ZNKSt3__15dequeIN6seneca13CustomerOrderENS_9allocatorIS2_EEE17__annotate_deleteB8ue170006Ev, symObjAddr: 0x2008, symBinAddr: 0x10000BE20, symSize: 0xE8 }
  - { offsetInCU: 0x144F9, offset: 0x3A84C, size: 0x8, addend: 0x0, symName: __ZNSt3__114__split_bufferIPN6seneca13CustomerOrderENS_9allocatorIS3_EEE5beginB8ue170006Ev, symObjAddr: 0x20F0, symBinAddr: 0x10000BF08, symSize: 0x18 }
  - { offsetInCU: 0x1451E, offset: 0x3A871, size: 0x8, addend: 0x0, symName: __ZNSt3__114__split_bufferIPN6seneca13CustomerOrderENS_9allocatorIS3_EEE3endB8ue170006Ev, symObjAddr: 0x2108, symBinAddr: 0x10000BF20, symSize: 0x18 }
  - { offsetInCU: 0x14543, offset: 0x3A896, size: 0x8, addend: 0x0, symName: __ZNSt3__116allocator_traitsINS_9allocatorIN6seneca13CustomerOrderEEEE10deallocateB8ue170006ERS4_PS3_m, symObjAddr: 0x2120, symBinAddr: 0x10000BF38, symSize: 0x34 }
  - { offsetInCU: 0x14585, offset: 0x3A8D8, size: 0x8, addend: 0x0, symName: __ZNSt3__15dequeIN6seneca13CustomerOrderENS_9allocatorIS2_EEE7__allocB8ue170006Ev, symObjAddr: 0x2154, symBinAddr: 0x10000BF6C, symSize: 0x28 }
  - { offsetInCU: 0x145AA, offset: 0x3A8FD, size: 0x8, addend: 0x0, symName: __ZNSt3__114__split_bufferIPN6seneca13CustomerOrderENS_9allocatorIS3_EEED1Ev, symObjAddr: 0x217C, symBinAddr: 0x10000BF94, symSize: 0x2C }
  - { offsetInCU: 0x145D5, offset: 0x3A928, size: 0x8, addend: 0x0, symName: __ZNSt3__116allocator_traitsINS_9allocatorIN6seneca13CustomerOrderEEEE7destroyB8ue170006IS3_vEEvRS4_PT_, symObjAddr: 0x21A8, symBinAddr: 0x10000BFC0, symSize: 0x2C }
  - { offsetInCU: 0x14613, offset: 0x3A966, size: 0x8, addend: 0x0, symName: __ZNSt3__15dequeIN6seneca13CustomerOrderENS_9allocatorIS2_EEE6__sizeB8ue170006Ev, symObjAddr: 0x21D4, symBinAddr: 0x10000BFEC, symSize: 0x28 }
  - { offsetInCU: 0x14638, offset: 0x3A98B, size: 0x8, addend: 0x0, symName: __ZNKSt3__114__split_bufferIPN6seneca13CustomerOrderENS_9allocatorIS3_EEE4sizeB8ue170006Ev, symObjAddr: 0x21FC, symBinAddr: 0x10000C014, symSize: 0x28 }
  - { offsetInCU: 0x1465D, offset: 0x3A9B0, size: 0x8, addend: 0x0, symName: __ZNSt3__114__split_bufferIPN6seneca13CustomerOrderENS_9allocatorIS3_EEE5frontB8ue170006Ev, symObjAddr: 0x2224, symBinAddr: 0x10000C03C, symSize: 0x18 }
  - { offsetInCU: 0x14682, offset: 0x3A9D5, size: 0x8, addend: 0x0, symName: __ZNSt3__114__split_bufferIPN6seneca13CustomerOrderENS_9allocatorIS3_EEE9pop_frontB8ue170006Ev, symObjAddr: 0x223C, symBinAddr: 0x10000C054, symSize: 0x2C }
  - { offsetInCU: 0x146A7, offset: 0x3A9FA, size: 0x8, addend: 0x0, symName: __ZNKSt3__15dequeIN6seneca13CustomerOrderENS_9allocatorIS2_EEE14__annotate_newB8ue170006Em, symObjAddr: 0x2268, symBinAddr: 0x10000C080, symSize: 0xB8 }
  - { offsetInCU: 0x146DB, offset: 0x3AA2E, size: 0x8, addend: 0x0, symName: __ZNSt3__19allocatorIN6seneca13CustomerOrderEE7destroyB8ue170006EPS2_, symObjAddr: 0x2320, symBinAddr: 0x10000C138, symSize: 0x28 }
  - { offsetInCU: 0x1470E, offset: 0x3AA61, size: 0x8, addend: 0x0, symName: __ZNSt3__117__compressed_pairImNS_9allocatorIN6seneca13CustomerOrderEEEE5firstB8ue170006Ev, symObjAddr: 0x2348, symBinAddr: 0x10000C160, symSize: 0x24 }
  - { offsetInCU: 0x14733, offset: 0x3AA86, size: 0x8, addend: 0x0, symName: __ZNSt3__122__compressed_pair_elemImLi0ELb0EE5__getB8ue170006Ev, symObjAddr: 0x236C, symBinAddr: 0x10000C184, symSize: 0x14 }
  - { offsetInCU: 0x14758, offset: 0x3AAAB, size: 0x8, addend: 0x0, symName: __ZNSt3__114__split_bufferIPN6seneca13CustomerOrderENS_9allocatorIS3_EEE19__destruct_at_beginB8ue170006EPS3_, symObjAddr: 0x2380, symBinAddr: 0x10000C198, symSize: 0x2C }
  - { offsetInCU: 0x1478B, offset: 0x3AADE, size: 0x8, addend: 0x0, symName: __ZNSt3__114__split_bufferIPN6seneca13CustomerOrderENS_9allocatorIS3_EEE19__destruct_at_beginEPS3_NS_17integral_constantIbLb1EEE, symObjAddr: 0x23AC, symBinAddr: 0x10000C1C4, symSize: 0x20 }
  - { offsetInCU: 0x147CB, offset: 0x3AB1E, size: 0x8, addend: 0x0, symName: __ZNKSt3__15dequeIN6seneca13CustomerOrderENS_9allocatorIS2_EEE18__annotate_from_toB8ue170006EmmNS5_22__asan_annotation_typeENS5_23__asan_annotation_placeE, symObjAddr: 0x23CC, symBinAddr: 0x10000C1E4, symSize: 0x580 }
  - { offsetInCU: 0x14986, offset: 0x3ACD9, size: 0x8, addend: 0x0, symName: __ZNKSt3__114__split_bufferIPN6seneca13CustomerOrderENS_9allocatorIS3_EEE5beginB8ue170006Ev, symObjAddr: 0x294C, symBinAddr: 0x10000C764, symSize: 0x18 }
  - { offsetInCU: 0x149AB, offset: 0x3ACFE, size: 0x8, addend: 0x0, symName: __ZNKSt3__15dequeIN6seneca13CustomerOrderENS_9allocatorIS2_EEE5emptyB8ue170006Ev, symObjAddr: 0x298C, symBinAddr: 0x10000C77C, symSize: 0x30 }
  - { offsetInCU: 0x149D0, offset: 0x3AD23, size: 0x8, addend: 0x0, symName: __ZNKSt3__15dequeIN6seneca13CustomerOrderENS_9allocatorIS2_EEE44__annotate_double_ended_contiguous_containerB8ue170006EPKvS7_S7_S7_S7_S7_, symObjAddr: 0x29D0, symBinAddr: 0x10000C7C0, symSize: 0x28 }
  - { offsetInCU: 0x14A3D, offset: 0x3AD90, size: 0x8, addend: 0x0, symName: __ZNKSt3__15dequeIN6seneca13CustomerOrderENS_9allocatorIS2_EEE22__annotate_whole_blockB8ue170006EmNS5_22__asan_annotation_typeE, symObjAddr: 0x2A58, symBinAddr: 0x10000C7E8, symSize: 0xAC }
  - { offsetInCU: 0x14AAD, offset: 0x3AE00, size: 0x8, addend: 0x0, symName: __ZNKSt3__15dequeIN6seneca13CustomerOrderENS_9allocatorIS2_EEE23__annotate_poison_blockB8ue170006EPKvS7_, symObjAddr: 0x2B04, symBinAddr: 0x10000C894, symSize: 0x44 }
  - { offsetInCU: 0x14AF0, offset: 0x3AE43, size: 0x8, addend: 0x0, symName: __ZNSt3__19allocatorIN6seneca13CustomerOrderEE10deallocateB8ue170006EPS2_m, symObjAddr: 0x2B48, symBinAddr: 0x10000C8D8, symSize: 0x40 }
  - { offsetInCU: 0x14B31, offset: 0x3AE84, size: 0x8, addend: 0x0, symName: __ZNSt3__117__compressed_pairImNS_9allocatorIN6seneca13CustomerOrderEEEE6secondB8ue170006Ev, symObjAddr: 0x2CB0, symBinAddr: 0x10000C918, symSize: 0x24 }
  - { offsetInCU: 0x14B56, offset: 0x3AEA9, size: 0x8, addend: 0x0, symName: __ZNSt3__122__compressed_pair_elemINS_9allocatorIN6seneca13CustomerOrderEEELi1ELb1EE5__getB8ue170006Ev, symObjAddr: 0x2CD4, symBinAddr: 0x10000C93C, symSize: 0x14 }
  - { offsetInCU: 0x14B7B, offset: 0x3AECE, size: 0x8, addend: 0x0, symName: __ZNSt3__114__split_bufferIPN6seneca13CustomerOrderENS_9allocatorIS3_EEED2Ev, symObjAddr: 0x2CE8, symBinAddr: 0x10000C950, symSize: 0x8C }
  - { offsetInCU: 0x14BA6, offset: 0x3AEF9, size: 0x8, addend: 0x0, symName: __ZNSt3__114__split_bufferIPN6seneca13CustomerOrderENS_9allocatorIS3_EEE5clearB8ue170006Ev, symObjAddr: 0x2D74, symBinAddr: 0x10000C9DC, symSize: 0x28 }
  - { offsetInCU: 0x14BCB, offset: 0x3AF1E, size: 0x8, addend: 0x0, symName: __ZNSt3__116allocator_traitsINS_9allocatorIPN6seneca13CustomerOrderEEEE10deallocateB8ue170006ERS5_PS4_m, symObjAddr: 0x2D9C, symBinAddr: 0x10000CA04, symSize: 0x34 }
  - { offsetInCU: 0x14C0D, offset: 0x3AF60, size: 0x8, addend: 0x0, symName: __ZNSt3__114__split_bufferIPN6seneca13CustomerOrderENS_9allocatorIS3_EEE7__allocB8ue170006Ev, symObjAddr: 0x2DD0, symBinAddr: 0x10000CA38, symSize: 0x28 }
  - { offsetInCU: 0x14C32, offset: 0x3AF85, size: 0x8, addend: 0x0, symName: __ZNKSt3__114__split_bufferIPN6seneca13CustomerOrderENS_9allocatorIS3_EEE8capacityB8ue170006Ev, symObjAddr: 0x2DF8, symBinAddr: 0x10000CA60, symSize: 0x40 }
  - { offsetInCU: 0x14C57, offset: 0x3AFAA, size: 0x8, addend: 0x0, symName: __ZNSt3__114__split_bufferIPN6seneca13CustomerOrderENS_9allocatorIS3_EEE17__destruct_at_endB8ue170006EPS3_, symObjAddr: 0x2E38, symBinAddr: 0x10000CAA0, symSize: 0x2C }
  - { offsetInCU: 0x14C8A, offset: 0x3AFDD, size: 0x8, addend: 0x0, symName: __ZNSt3__114__split_bufferIPN6seneca13CustomerOrderENS_9allocatorIS3_EEE17__destruct_at_endB8ue170006EPS3_NS_17integral_constantIbLb0EEE, symObjAddr: 0x2E64, symBinAddr: 0x10000CACC, symSize: 0x80 }
  - { offsetInCU: 0x14CCA, offset: 0x3B01D, size: 0x8, addend: 0x0, symName: __ZNSt3__116allocator_traitsINS_9allocatorIPN6seneca13CustomerOrderEEEE7destroyB8ue170006IS4_vEEvRS5_PT_, symObjAddr: 0x2EE4, symBinAddr: 0x10000CB4C, symSize: 0x2C }
  - { offsetInCU: 0x14D08, offset: 0x3B05B, size: 0x8, addend: 0x0, symName: __ZNSt3__19allocatorIPN6seneca13CustomerOrderEE7destroyB8ue170006EPS3_, symObjAddr: 0x2F24, symBinAddr: 0x10000CB8C, symSize: 0x14 }
  - { offsetInCU: 0x14D3B, offset: 0x3B08E, size: 0x8, addend: 0x0, symName: __ZNSt3__19allocatorIPN6seneca13CustomerOrderEE10deallocateB8ue170006EPS3_m, symObjAddr: 0x2F38, symBinAddr: 0x10000CBA0, symSize: 0x40 }
  - { offsetInCU: 0x14D7C, offset: 0x3B0CF, size: 0x8, addend: 0x0, symName: __ZNSt3__117__compressed_pairIPPN6seneca13CustomerOrderENS_9allocatorIS3_EEE6secondB8ue170006Ev, symObjAddr: 0x2F78, symBinAddr: 0x10000CBE0, symSize: 0x24 }
  - { offsetInCU: 0x14DA1, offset: 0x3B0F4, size: 0x8, addend: 0x0, symName: __ZNSt3__122__compressed_pair_elemINS_9allocatorIPN6seneca13CustomerOrderEEELi1ELb1EE5__getB8ue170006Ev, symObjAddr: 0x2F9C, symBinAddr: 0x10000CC04, symSize: 0x14 }
  - { offsetInCU: 0x14DC6, offset: 0x3B119, size: 0x8, addend: 0x0, symName: __ZNKSt3__114__split_bufferIPN6seneca13CustomerOrderENS_9allocatorIS3_EEE9__end_capB8ue170006Ev, symObjAddr: 0x2FB0, symBinAddr: 0x10000CC18, symSize: 0x28 }
  - { offsetInCU: 0x14DEB, offset: 0x3B13E, size: 0x8, addend: 0x0, symName: __ZNKSt3__117__compressed_pairIPPN6seneca13CustomerOrderENS_9allocatorIS3_EEE5firstB8ue170006Ev, symObjAddr: 0x2FD8, symBinAddr: 0x10000CC40, symSize: 0x24 }
  - { offsetInCU: 0x14E10, offset: 0x3B163, size: 0x8, addend: 0x0, symName: __ZNKSt3__122__compressed_pair_elemIPPN6seneca13CustomerOrderELi0ELb0EE5__getB8ue170006Ev, symObjAddr: 0x2FFC, symBinAddr: 0x10000CC64, symSize: 0x14 }
  - { offsetInCU: 0x14E5D, offset: 0x3B1B0, size: 0x8, addend: 0x0, symName: __ZNSt3__16vectorIN6seneca13CustomerOrderENS_9allocatorIS2_EEEC2B8ue170006Ev, symObjAddr: 0x4144, symBinAddr: 0x10000CC78, symSize: 0x4C }
  - { offsetInCU: 0x14E85, offset: 0x3B1D8, size: 0x8, addend: 0x0, symName: __ZNSt3__117__compressed_pairIPN6seneca13CustomerOrderENS_9allocatorIS2_EEEC1B8ue170006IDnNS_18__default_init_tagEEEOT_OT0_, symObjAddr: 0x4190, symBinAddr: 0x10000CCC4, symSize: 0x3C }
  - { offsetInCU: 0x14EDB, offset: 0x3B22E, size: 0x8, addend: 0x0, symName: __ZNSt3__117__compressed_pairIPN6seneca13CustomerOrderENS_9allocatorIS2_EEEC2B8ue170006IDnNS_18__default_init_tagEEEOT_OT0_, symObjAddr: 0x41CC, symBinAddr: 0x10000CD00, symSize: 0x40 }
  - { offsetInCU: 0x14F31, offset: 0x3B284, size: 0x8, addend: 0x0, symName: __ZNSt3__122__compressed_pair_elemIPN6seneca13CustomerOrderELi0ELb0EEC2B8ue170006IDnvEEOT_, symObjAddr: 0x420C, symBinAddr: 0x10000CD40, symSize: 0x1C }
  - { offsetInCU: 0x14F73, offset: 0x3B2C6, size: 0x8, addend: 0x0, symName: __ZNSt3__122__compressed_pair_elemINS_9allocatorIN6seneca13CustomerOrderEEELi1ELb1EEC2B8ue170006ENS_18__default_init_tagE, symObjAddr: 0x4228, symBinAddr: 0x10000CD5C, symSize: 0x2C }
  - { offsetInCU: 0x14FA6, offset: 0x3B2F9, size: 0x8, addend: 0x0, symName: __ZNSt3__19allocatorIN6seneca13CustomerOrderEEC2B8ue170006Ev, symObjAddr: 0x4254, symBinAddr: 0x10000CD88, symSize: 0x2C }
  - { offsetInCU: 0x14FCE, offset: 0x3B321, size: 0x8, addend: 0x0, symName: __ZNSt3__116__non_trivial_ifILb1ENS_9allocatorIN6seneca13CustomerOrderEEEEC2B8ue170006Ev, symObjAddr: 0x4280, symBinAddr: 0x10000CDB4, symSize: 0x14 }
  - { offsetInCU: 0x14FF7, offset: 0x3B34A, size: 0x8, addend: 0x0, symName: __ZNSt3__16vectorIN6seneca13CustomerOrderENS_9allocatorIS2_EEED2B8ue170006Ev, symObjAddr: 0x4294, symBinAddr: 0x10000CDC8, symSize: 0x44 }
  - { offsetInCU: 0x1501F, offset: 0x3B372, size: 0x8, addend: 0x0, symName: __ZNSt3__16vectorIN6seneca13CustomerOrderENS_9allocatorIS2_EEE16__destroy_vectorC1B8ue170006ERS5_, symObjAddr: 0x42D8, symBinAddr: 0x10000CE0C, symSize: 0x34 }
  - { offsetInCU: 0x15056, offset: 0x3B3A9, size: 0x8, addend: 0x0, symName: __ZNSt3__16vectorIN6seneca13CustomerOrderENS_9allocatorIS2_EEE16__destroy_vectorclB8ue170006Ev, symObjAddr: 0x430C, symBinAddr: 0x10000CE40, symSize: 0x90 }
  - { offsetInCU: 0x1507B, offset: 0x3B3CE, size: 0x8, addend: 0x0, symName: __ZNSt3__16vectorIN6seneca13CustomerOrderENS_9allocatorIS2_EEE16__destroy_vectorC2B8ue170006ERS5_, symObjAddr: 0x439C, symBinAddr: 0x10000CED0, symSize: 0x20 }
  - { offsetInCU: 0x150B3, offset: 0x3B406, size: 0x8, addend: 0x0, symName: __ZNSt3__16vectorIN6seneca13CustomerOrderENS_9allocatorIS2_EEE7__clearB8ue170006Ev, symObjAddr: 0x43BC, symBinAddr: 0x10000CEF0, symSize: 0x28 }
  - { offsetInCU: 0x150D8, offset: 0x3B42B, size: 0x8, addend: 0x0, symName: __ZNKSt3__16vectorIN6seneca13CustomerOrderENS_9allocatorIS2_EEE17__annotate_deleteB8ue170006Ev, symObjAddr: 0x43E4, symBinAddr: 0x10000CF18, symSize: 0xB8 }
  - { offsetInCU: 0x150FD, offset: 0x3B450, size: 0x8, addend: 0x0, symName: __ZNSt3__16vectorIN6seneca13CustomerOrderENS_9allocatorIS2_EEE7__allocB8ue170006Ev, symObjAddr: 0x449C, symBinAddr: 0x10000CFD0, symSize: 0x28 }
  - { offsetInCU: 0x15122, offset: 0x3B475, size: 0x8, addend: 0x0, symName: __ZNKSt3__16vectorIN6seneca13CustomerOrderENS_9allocatorIS2_EEE8capacityB8ue170006Ev, symObjAddr: 0x44C4, symBinAddr: 0x10000CFF8, symSize: 0x40 }
  - { offsetInCU: 0x15147, offset: 0x3B49A, size: 0x8, addend: 0x0, symName: __ZNSt3__16vectorIN6seneca13CustomerOrderENS_9allocatorIS2_EEE22__base_destruct_at_endB8ue170006EPS2_, symObjAddr: 0x4504, symBinAddr: 0x10000D038, symSize: 0x8C }
  - { offsetInCU: 0x1518A, offset: 0x3B4DD, size: 0x8, addend: 0x0, symName: __ZNKSt3__16vectorIN6seneca13CustomerOrderENS_9allocatorIS2_EEE31__annotate_contiguous_containerB8ue170006EPKvS7_S7_S7_, symObjAddr: 0x4590, symBinAddr: 0x10000D0C4, symSize: 0x20 }
  - { offsetInCU: 0x151DF, offset: 0x3B532, size: 0x8, addend: 0x0, symName: __ZNKSt3__16vectorIN6seneca13CustomerOrderENS_9allocatorIS2_EEE4dataB8ue170006Ev, symObjAddr: 0x45B0, symBinAddr: 0x10000D0E4, symSize: 0x28 }
  - { offsetInCU: 0x15204, offset: 0x3B557, size: 0x8, addend: 0x0, symName: __ZNKSt3__16vectorIN6seneca13CustomerOrderENS_9allocatorIS2_EEE4sizeB8ue170006Ev, symObjAddr: 0x45D8, symBinAddr: 0x10000D10C, symSize: 0x28 }
  - { offsetInCU: 0x15229, offset: 0x3B57C, size: 0x8, addend: 0x0, symName: __ZNSt3__117__compressed_pairIPN6seneca13CustomerOrderENS_9allocatorIS2_EEE6secondB8ue170006Ev, symObjAddr: 0x4600, symBinAddr: 0x10000D134, symSize: 0x24 }
  - { offsetInCU: 0x1524E, offset: 0x3B5A1, size: 0x8, addend: 0x0, symName: __ZNKSt3__16vectorIN6seneca13CustomerOrderENS_9allocatorIS2_EEE9__end_capB8ue170006Ev, symObjAddr: 0x4624, symBinAddr: 0x10000D158, symSize: 0x28 }
  - { offsetInCU: 0x15273, offset: 0x3B5C6, size: 0x8, addend: 0x0, symName: __ZNKSt3__117__compressed_pairIPN6seneca13CustomerOrderENS_9allocatorIS2_EEE5firstB8ue170006Ev, symObjAddr: 0x464C, symBinAddr: 0x10000D180, symSize: 0x24 }
  - { offsetInCU: 0x15298, offset: 0x3B5EB, size: 0x8, addend: 0x0, symName: __ZNKSt3__122__compressed_pair_elemIPN6seneca13CustomerOrderELi0ELb0EE5__getB8ue170006Ev, symObjAddr: 0x4670, symBinAddr: 0x10000D1A4, symSize: 0x14 }
  - { offsetInCU: 0x15383, offset: 0x3B6D6, size: 0x8, addend: 0x0, symName: __ZNSt3__114basic_ifstreamIcNS_11char_traitsIcEEEC1EPKcj, symObjAddr: 0x4684, symBinAddr: 0x10000D1B8, symSize: 0x16C }
  - { offsetInCU: 0x153CC, offset: 0x3B71F, size: 0x8, addend: 0x0, symName: __ZNKSt3__19basic_iosIcNS_11char_traitsIcEEEntB8ue170006Ev, symObjAddr: 0x47F0, symBinAddr: 0x10000D324, symSize: 0x28 }
  - { offsetInCU: 0x153F1, offset: 0x3B744, size: 0x8, addend: 0x0, symName: __ZNKSt3__19basic_iosIcNS_11char_traitsIcEEE3eofB8ue170006Ev, symObjAddr: 0x4884, symBinAddr: 0x10000D38C, symSize: 0x28 }
  - { offsetInCU: 0x15416, offset: 0x3B769, size: 0x8, addend: 0x0, symName: __ZNSt3__16vectorIPN6seneca11WorkstationENS_9allocatorIS3_EEE9push_backB8ue170006EOS3_, symObjAddr: 0x4908, symBinAddr: 0x10000D3B4, symSize: 0x6C }
  - { offsetInCU: 0x1544C, offset: 0x3B79F, size: 0x8, addend: 0x0, symName: __ZN6seneca11WorkstationC1ERKNSt3__112basic_stringIcNS1_11char_traitsIcEENS1_9allocatorIcEEEE, symObjAddr: 0x4974, symBinAddr: 0x10000D420, symSize: 0x34 }
  - { offsetInCU: 0x15482, offset: 0x3B7D5, size: 0x8, addend: 0x0, symName: __ZNSt3__114basic_ifstreamIcNS_11char_traitsIcEEE5closeEv, symObjAddr: 0x49A8, symBinAddr: 0x10000D454, symSize: 0x58 }
  - { offsetInCU: 0x154AE, offset: 0x3B801, size: 0x8, addend: 0x0, symName: __ZNSt3__114basic_ifstreamIcNS_11char_traitsIcEEED1Ev, symObjAddr: 0x4A00, symBinAddr: 0x10000D4AC, symSize: 0x40 }
  - { offsetInCU: 0x154DA, offset: 0x3B82D, size: 0x8, addend: 0x0, symName: __ZNSt3__112basic_stringIcNS_11char_traitsIcEENS_9allocatorIcEEEC1B8ue170006EOS5_, symObjAddr: 0x4BA0, symBinAddr: 0x10000D4EC, symSize: 0x34 }
  - { offsetInCU: 0x15511, offset: 0x3B864, size: 0x8, addend: 0x0, symName: __ZNSt3__112basic_stringIcNS_11char_traitsIcEENS_9allocatorIcEEEC2B8ue170006EOS5_, symObjAddr: 0x4BD4, symBinAddr: 0x10000D520, symSize: 0x50 }
  - { offsetInCU: 0x15548, offset: 0x3B89B, size: 0x8, addend: 0x0, symName: __ZNKSt3__18ios_base3eofB8ue170006Ev, symObjAddr: 0x4CA8, symBinAddr: 0x10000D570, symSize: 0x24 }
  - { offsetInCU: 0x15592, offset: 0x3B8E5, size: 0x8, addend: 0x0, symName: __ZNSt3__16vectorIPN6seneca11WorkstationENS_9allocatorIS3_EEE22__construct_one_at_endB8ue170006IJS3_EEEvDpOT_, symObjAddr: 0x540C, symBinAddr: 0x10000D594, symSize: 0x90 }
  - { offsetInCU: 0x155E0, offset: 0x3B933, size: 0x8, addend: 0x0, symName: __ZNSt3__16vectorIPN6seneca11WorkstationENS_9allocatorIS3_EEE21__push_back_slow_pathIS3_EEvOT_, symObjAddr: 0x549C, symBinAddr: 0x10000D624, symSize: 0xD8 }
  - { offsetInCU: 0x15656, offset: 0x3B9A9, size: 0x8, addend: 0x0, symName: __ZNSt3__116allocator_traitsINS_9allocatorIPN6seneca11WorkstationEEEE9constructB8ue170006IS4_JS4_EvEEvRS5_PT_DpOT0_, symObjAddr: 0x55E8, symBinAddr: 0x10000D6FC, symSize: 0x34 }
  - { offsetInCU: 0x156AE, offset: 0x3BA01, size: 0x8, addend: 0x0, symName: __ZNSt3__19allocatorIPN6seneca11WorkstationEE9constructB8ue170006IS3_JS3_EEEvPT_DpOT0_, symObjAddr: 0x568C, symBinAddr: 0x10000D730, symSize: 0x28 }
  - { offsetInCU: 0x1570D, offset: 0x3BA60, size: 0x8, addend: 0x0, symName: __ZN6seneca11WorkstationC2ERKNSt3__112basic_stringIcNS1_11char_traitsIcEENS1_9allocatorIcEEEE, symObjAddr: 0x6A10, symBinAddr: 0x10000D758, symSize: 0x44 }
  - { offsetInCU: 0x15743, offset: 0x3BA96, size: 0x8, addend: 0x0, symName: __ZNSt3__15dequeIN6seneca13CustomerOrderENS_9allocatorIS2_EEEC1B8ue170006Ev, symObjAddr: 0x6A54, symBinAddr: 0x10000D79C, symSize: 0x2C }
  - { offsetInCU: 0x1576B, offset: 0x3BABE, size: 0x8, addend: 0x0, symName: __ZNSt3__15dequeIN6seneca13CustomerOrderENS_9allocatorIS2_EEEC2B8ue170006Ev, symObjAddr: 0x6A80, symBinAddr: 0x10000D7C8, symSize: 0x5C }
  - { offsetInCU: 0x15793, offset: 0x3BAE6, size: 0x8, addend: 0x0, symName: __ZNSt3__114__split_bufferIPN6seneca13CustomerOrderENS_9allocatorIS3_EEEC1B8ue170006Ev, symObjAddr: 0x6ADC, symBinAddr: 0x10000D824, symSize: 0x2C }
  - { offsetInCU: 0x157C0, offset: 0x3BB13, size: 0x8, addend: 0x0, symName: __ZNSt3__117__compressed_pairImNS_9allocatorIN6seneca13CustomerOrderEEEEC1B8ue170006IiNS_18__default_init_tagEEEOT_OT0_, symObjAddr: 0x6B08, symBinAddr: 0x10000D850, symSize: 0x3C }
  - { offsetInCU: 0x15816, offset: 0x3BB69, size: 0x8, addend: 0x0, symName: __ZNSt3__114__split_bufferIPN6seneca13CustomerOrderENS_9allocatorIS3_EEEC2B8ue170006Ev, symObjAddr: 0x6B44, symBinAddr: 0x10000D88C, symSize: 0x50 }
  - { offsetInCU: 0x1583E, offset: 0x3BB91, size: 0x8, addend: 0x0, symName: __ZNSt3__117__compressed_pairIPPN6seneca13CustomerOrderENS_9allocatorIS3_EEEC1B8ue170006IDnNS_18__default_init_tagEEEOT_OT0_, symObjAddr: 0x6B94, symBinAddr: 0x10000D8DC, symSize: 0x3C }
  - { offsetInCU: 0x15894, offset: 0x3BBE7, size: 0x8, addend: 0x0, symName: __ZNSt3__117__compressed_pairIPPN6seneca13CustomerOrderENS_9allocatorIS3_EEEC2B8ue170006IDnNS_18__default_init_tagEEEOT_OT0_, symObjAddr: 0x6BD0, symBinAddr: 0x10000D918, symSize: 0x40 }
  - { offsetInCU: 0x158EA, offset: 0x3BC3D, size: 0x8, addend: 0x0, symName: __ZNSt3__122__compressed_pair_elemIPPN6seneca13CustomerOrderELi0ELb0EEC2B8ue170006IDnvEEOT_, symObjAddr: 0x6C10, symBinAddr: 0x10000D958, symSize: 0x1C }
  - { offsetInCU: 0x1592C, offset: 0x3BC7F, size: 0x8, addend: 0x0, symName: __ZNSt3__122__compressed_pair_elemINS_9allocatorIPN6seneca13CustomerOrderEEELi1ELb1EEC2B8ue170006ENS_18__default_init_tagE, symObjAddr: 0x6C2C, symBinAddr: 0x10000D974, symSize: 0x2C }
  - { offsetInCU: 0x1595F, offset: 0x3BCB2, size: 0x8, addend: 0x0, symName: __ZNSt3__19allocatorIPN6seneca13CustomerOrderEEC2B8ue170006Ev, symObjAddr: 0x6C58, symBinAddr: 0x10000D9A0, symSize: 0x2C }
  - { offsetInCU: 0x15987, offset: 0x3BCDA, size: 0x8, addend: 0x0, symName: __ZNSt3__116__non_trivial_ifILb1ENS_9allocatorIPN6seneca13CustomerOrderEEEEC2B8ue170006Ev, symObjAddr: 0x6C84, symBinAddr: 0x10000D9CC, symSize: 0x14 }
  - { offsetInCU: 0x159B0, offset: 0x3BD03, size: 0x8, addend: 0x0, symName: __ZNSt3__117__compressed_pairImNS_9allocatorIN6seneca13CustomerOrderEEEEC2B8ue170006IiNS_18__default_init_tagEEEOT_OT0_, symObjAddr: 0x6C98, symBinAddr: 0x10000D9E0, symSize: 0x40 }
  - { offsetInCU: 0x15A06, offset: 0x3BD59, size: 0x8, addend: 0x0, symName: __ZNSt3__122__compressed_pair_elemImLi0ELb0EEC2B8ue170006IivEEOT_, symObjAddr: 0x6CD8, symBinAddr: 0x10000DA20, symSize: 0x24 }
  - { offsetInCU: 0x15A48, offset: 0x3BD9B, size: 0x8, addend: 0x0, symName: __ZNSt3__114basic_ifstreamIcNS_11char_traitsIcEEED2Ev, symObjAddr: 0x6CFC, symBinAddr: 0x10000DA44, symSize: 0x64 }
  - { offsetInCU: 0x15A80, offset: 0x3BDD3, size: 0x8, addend: 0x0, symName: __ZTv0_n24_NSt3__114basic_ifstreamIcNS_11char_traitsIcEEED1Ev, symObjAddr: 0x6D60, symBinAddr: 0x10000DAA8, symSize: 0x28 }
  - { offsetInCU: 0x15A97, offset: 0x3BDEA, size: 0x8, addend: 0x0, symName: __ZNSt3__16vectorIN6seneca13CustomerOrderENS_9allocatorIS2_EEE9push_backB8ue170006EOS2_, symObjAddr: 0x6F00, symBinAddr: 0x10000DAD0, symSize: 0x6C }
  - { offsetInCU: 0x15ACD, offset: 0x3BE20, size: 0x8, addend: 0x0, symName: __ZNSt3__16vectorIN6seneca13CustomerOrderENS_9allocatorIS2_EEE9__end_capB8ue170006Ev, symObjAddr: 0x6F6C, symBinAddr: 0x10000DB3C, symSize: 0x28 }
  - { offsetInCU: 0x15AF2, offset: 0x3BE45, size: 0x8, addend: 0x0, symName: __ZNSt3__16vectorIN6seneca13CustomerOrderENS_9allocatorIS2_EEE22__construct_one_at_endB8ue170006IJS2_EEEvDpOT_, symObjAddr: 0x6F94, symBinAddr: 0x10000DB64, symSize: 0x90 }
  - { offsetInCU: 0x15B40, offset: 0x3BE93, size: 0x8, addend: 0x0, symName: __ZNSt3__16vectorIN6seneca13CustomerOrderENS_9allocatorIS2_EEE21__push_back_slow_pathIS2_EEvOT_, symObjAddr: 0x7024, symBinAddr: 0x10000DBF4, symSize: 0xD8 }
  - { offsetInCU: 0x15B9D, offset: 0x3BEF0, size: 0x8, addend: 0x0, symName: __ZNSt3__117__compressed_pairIPN6seneca13CustomerOrderENS_9allocatorIS2_EEE5firstB8ue170006Ev, symObjAddr: 0x70FC, symBinAddr: 0x10000DCCC, symSize: 0x24 }
  - { offsetInCU: 0x15BC2, offset: 0x3BF15, size: 0x8, addend: 0x0, symName: __ZNSt3__122__compressed_pair_elemIPN6seneca13CustomerOrderELi0ELb0EE5__getB8ue170006Ev, symObjAddr: 0x7120, symBinAddr: 0x10000DCF0, symSize: 0x14 }
  - { offsetInCU: 0x15C00, offset: 0x3BF53, size: 0x8, addend: 0x0, symName: __ZNSt3__16vectorIN6seneca13CustomerOrderENS_9allocatorIS2_EEE21_ConstructTransactionC1B8ue170006ERS5_m, symObjAddr: 0x7134, symBinAddr: 0x10000DD04, symSize: 0x3C }
  - { offsetInCU: 0x15C46, offset: 0x3BF99, size: 0x8, addend: 0x0, symName: __ZNSt3__116allocator_traitsINS_9allocatorIN6seneca13CustomerOrderEEEE9constructB8ue170006IS3_JS3_EvEEvRS4_PT_DpOT0_, symObjAddr: 0x7170, symBinAddr: 0x10000DD40, symSize: 0x34 }
  - { offsetInCU: 0x15C9E, offset: 0x3BFF1, size: 0x8, addend: 0x0, symName: __ZNSt3__16vectorIN6seneca13CustomerOrderENS_9allocatorIS2_EEE21_ConstructTransactionD1B8ue170006Ev, symObjAddr: 0x71A4, symBinAddr: 0x10000DD74, symSize: 0x2C }
  - { offsetInCU: 0x15CC6, offset: 0x3C019, size: 0x8, addend: 0x0, symName: __ZNSt3__16vectorIN6seneca13CustomerOrderENS_9allocatorIS2_EEE21_ConstructTransactionC2B8ue170006ERS5_m, symObjAddr: 0x71D0, symBinAddr: 0x10000DDA0, symSize: 0x44 }
  - { offsetInCU: 0x15D0D, offset: 0x3C060, size: 0x8, addend: 0x0, symName: __ZNSt3__19allocatorIN6seneca13CustomerOrderEE9constructB8ue170006IS2_JS2_EEEvPT_DpOT0_, symObjAddr: 0x7214, symBinAddr: 0x10000DDE4, symSize: 0x30 }
  - { offsetInCU: 0x15D62, offset: 0x3C0B5, size: 0x8, addend: 0x0, symName: __ZNSt3__16vectorIN6seneca13CustomerOrderENS_9allocatorIS2_EEE21_ConstructTransactionD2B8ue170006Ev, symObjAddr: 0x7244, symBinAddr: 0x10000DE14, symSize: 0x20 }
  - { offsetInCU: 0x15D8B, offset: 0x3C0DE, size: 0x8, addend: 0x0, symName: __ZNKSt3__16vectorIN6seneca13CustomerOrderENS_9allocatorIS2_EEE11__recommendB8ue170006Em, symObjAddr: 0x7264, symBinAddr: 0x10000DE34, symSize: 0xB4 }
  - { offsetInCU: 0x15DDF, offset: 0x3C132, size: 0x8, addend: 0x0, symName: __ZNSt3__114__split_bufferIN6seneca13CustomerOrderERNS_9allocatorIS2_EEEC1EmmS5_, symObjAddr: 0x7318, symBinAddr: 0x10000DEE8, symSize: 0x44 }
  - { offsetInCU: 0x15E34, offset: 0x3C187, size: 0x8, addend: 0x0, symName: __ZNSt3__114__split_bufferIN6seneca13CustomerOrderERNS_9allocatorIS2_EEED1Ev, symObjAddr: 0x746C, symBinAddr: 0x10000E03C, symSize: 0x2C }
  - { offsetInCU: 0x15E5F, offset: 0x3C1B2, size: 0x8, addend: 0x0, symName: __ZNKSt3__16vectorIN6seneca13CustomerOrderENS_9allocatorIS2_EEE8max_sizeEv, symObjAddr: 0x7498, symBinAddr: 0x10000E068, symSize: 0x60 }
  - { offsetInCU: 0x15E86, offset: 0x3C1D9, size: 0x8, addend: 0x0, symName: __ZNKSt3__16vectorIN6seneca13CustomerOrderENS_9allocatorIS2_EEE20__throw_length_errorB8ue170006Ev, symObjAddr: 0x74F8, symBinAddr: 0x10000E0C8, symSize: 0x1C }
  - { offsetInCU: 0x15EB5, offset: 0x3C208, size: 0x8, addend: 0x0, symName: __ZNSt3__116allocator_traitsINS_9allocatorIN6seneca13CustomerOrderEEEE8max_sizeB8ue170006IS4_vEEmRKS4_, symObjAddr: 0x7514, symBinAddr: 0x10000E0E4, symSize: 0x24 }
  - { offsetInCU: 0x15EE4, offset: 0x3C237, size: 0x8, addend: 0x0, symName: __ZNKSt3__16vectorIN6seneca13CustomerOrderENS_9allocatorIS2_EEE7__allocB8ue170006Ev, symObjAddr: 0x7538, symBinAddr: 0x10000E108, symSize: 0x28 }
  - { offsetInCU: 0x15F09, offset: 0x3C25C, size: 0x8, addend: 0x0, symName: __ZNKSt3__19allocatorIN6seneca13CustomerOrderEE8max_sizeB8ue170006Ev, symObjAddr: 0x7560, symBinAddr: 0x10000E130, symSize: 0x14 }
  - { offsetInCU: 0x15F2E, offset: 0x3C281, size: 0x8, addend: 0x0, symName: __ZNKSt3__117__compressed_pairIPN6seneca13CustomerOrderENS_9allocatorIS2_EEE6secondB8ue170006Ev, symObjAddr: 0x7574, symBinAddr: 0x10000E144, symSize: 0x24 }
  - { offsetInCU: 0x15F53, offset: 0x3C2A6, size: 0x8, addend: 0x0, symName: __ZNKSt3__122__compressed_pair_elemINS_9allocatorIN6seneca13CustomerOrderEEELi1ELb1EE5__getB8ue170006Ev, symObjAddr: 0x7598, symBinAddr: 0x10000E168, symSize: 0x14 }
  - { offsetInCU: 0x15F78, offset: 0x3C2CB, size: 0x8, addend: 0x0, symName: __ZNSt3__114__split_bufferIN6seneca13CustomerOrderERNS_9allocatorIS2_EEEC2EmmS5_, symObjAddr: 0x75AC, symBinAddr: 0x10000E17C, symSize: 0xD4 }
  - { offsetInCU: 0x15FEA, offset: 0x3C33D, size: 0x8, addend: 0x0, symName: __ZNSt3__117__compressed_pairIPN6seneca13CustomerOrderERNS_9allocatorIS2_EEEC1B8ue170006IDnS6_EEOT_OT0_, symObjAddr: 0x7680, symBinAddr: 0x10000E250, symSize: 0x3C }
  - { offsetInCU: 0x16040, offset: 0x3C393, size: 0x8, addend: 0x0, symName: __ZNSt3__114__split_bufferIN6seneca13CustomerOrderERNS_9allocatorIS2_EEE7__allocB8ue170006Ev, symObjAddr: 0x76FC, symBinAddr: 0x10000E2CC, symSize: 0x28 }
  - { offsetInCU: 0x16065, offset: 0x3C3B8, size: 0x8, addend: 0x0, symName: __ZNSt3__114__split_bufferIN6seneca13CustomerOrderERNS_9allocatorIS2_EEE9__end_capB8ue170006Ev, symObjAddr: 0x7724, symBinAddr: 0x10000E2F4, symSize: 0x28 }
  - { offsetInCU: 0x1608A, offset: 0x3C3DD, size: 0x8, addend: 0x0, symName: __ZNSt3__117__compressed_pairIPN6seneca13CustomerOrderERNS_9allocatorIS2_EEEC2B8ue170006IDnS6_EEOT_OT0_, symObjAddr: 0x774C, symBinAddr: 0x10000E31C, symSize: 0x48 }
  - { offsetInCU: 0x160E0, offset: 0x3C433, size: 0x8, addend: 0x0, symName: __ZNSt3__122__compressed_pair_elemIRNS_9allocatorIN6seneca13CustomerOrderEEELi1ELb0EEC2B8ue170006IS5_vEEOT_, symObjAddr: 0x7794, symBinAddr: 0x10000E364, symSize: 0x20 }
  - { offsetInCU: 0x16122, offset: 0x3C475, size: 0x8, addend: 0x0, symName: __ZNSt3__19allocatorIN6seneca13CustomerOrderEE8allocateB8ue170006Em, symObjAddr: 0x77B4, symBinAddr: 0x10000E384, symSize: 0x58 }
  - { offsetInCU: 0x16155, offset: 0x3C4A8, size: 0x8, addend: 0x0, symName: __ZNSt3__117__compressed_pairIPN6seneca13CustomerOrderERNS_9allocatorIS2_EEE6secondB8ue170006Ev, symObjAddr: 0x780C, symBinAddr: 0x10000E3DC, symSize: 0x28 }
  - { offsetInCU: 0x1617A, offset: 0x3C4CD, size: 0x8, addend: 0x0, symName: __ZNSt3__122__compressed_pair_elemIRNS_9allocatorIN6seneca13CustomerOrderEEELi1ELb0EE5__getB8ue170006Ev, symObjAddr: 0x7834, symBinAddr: 0x10000E404, symSize: 0x18 }
  - { offsetInCU: 0x1619F, offset: 0x3C4F2, size: 0x8, addend: 0x0, symName: __ZNSt3__117__compressed_pairIPN6seneca13CustomerOrderERNS_9allocatorIS2_EEE5firstB8ue170006Ev, symObjAddr: 0x784C, symBinAddr: 0x10000E41C, symSize: 0x24 }
  - { offsetInCU: 0x161C4, offset: 0x3C517, size: 0x8, addend: 0x0, symName: __ZNSt3__116reverse_iteratorIPN6seneca13CustomerOrderEEC1B8ue170006ES3_, symObjAddr: 0x799C, symBinAddr: 0x10000E56C, symSize: 0x34 }
  - { offsetInCU: 0x161FA, offset: 0x3C54D, size: 0x8, addend: 0x0, symName: __ZNKSt3__116reverse_iteratorIPN6seneca13CustomerOrderEE4baseB8ue170006Ev, symObjAddr: 0x79D0, symBinAddr: 0x10000E5A0, symSize: 0x18 }
  - { offsetInCU: 0x1621F, offset: 0x3C572, size: 0x8, addend: 0x0, symName: __ZNKSt3__16vectorIN6seneca13CustomerOrderENS_9allocatorIS2_EEE14__annotate_newB8ue170006Em, symObjAddr: 0x7A24, symBinAddr: 0x10000E5F4, symSize: 0xAC }
  - { offsetInCU: 0x16253, offset: 0x3C5A6, size: 0x8, addend: 0x0, symName: __ZNSt3__129_AllocatorDestroyRangeReverseINS_9allocatorIN6seneca13CustomerOrderEEENS_16reverse_iteratorIPS3_EEEC1B8ue170006ERS4_RS7_SA_, symObjAddr: 0x7B1C, symBinAddr: 0x10000E6EC, symSize: 0x44 }
  - { offsetInCU: 0x162A8, offset: 0x3C5FB, size: 0x8, addend: 0x0, symName: __ZNKSt3__116reverse_iteratorIPN6seneca13CustomerOrderEEdeB8ue170006Ev, symObjAddr: 0x7BCC, symBinAddr: 0x10000E79C, symSize: 0x28 }
  - { offsetInCU: 0x162DB, offset: 0x3C62E, size: 0x8, addend: 0x0, symName: __ZNSt3__116reverse_iteratorIPN6seneca13CustomerOrderEEppB8ue170006Ev, symObjAddr: 0x7BF4, symBinAddr: 0x10000E7C4, symSize: 0x20 }
  - { offsetInCU: 0x16300, offset: 0x3C653, size: 0x8, addend: 0x0, symName: __ZNSt3__128__exception_guard_exceptionsINS_29_AllocatorDestroyRangeReverseINS_9allocatorIN6seneca13CustomerOrderEEENS_16reverse_iteratorIPS4_EEEEE10__completeB8ue170006Ev, symObjAddr: 0x7C14, symBinAddr: 0x10000E7E4, symSize: 0x1C }
  - { offsetInCU: 0x16325, offset: 0x3C678, size: 0x8, addend: 0x0, symName: __ZNSt3__128__exception_guard_exceptionsINS_29_AllocatorDestroyRangeReverseINS_9allocatorIN6seneca13CustomerOrderEEENS_16reverse_iteratorIPS4_EEEEED1B8ue170006Ev, symObjAddr: 0x7C30, symBinAddr: 0x10000E800, symSize: 0x2C }
  - { offsetInCU: 0x1634D, offset: 0x3C6A0, size: 0x8, addend: 0x0, symName: __ZNSt3__128__exception_guard_exceptionsINS_29_AllocatorDestroyRangeReverseINS_9allocatorIN6seneca13CustomerOrderEEENS_16reverse_iteratorIPS4_EEEEEC1B8ue170006ES9_, symObjAddr: 0x7C5C, symBinAddr: 0x10000E82C, symSize: 0x34 }
  - { offsetInCU: 0x16384, offset: 0x3C6D7, size: 0x8, addend: 0x0, symName: __ZNSt3__128__exception_guard_exceptionsINS_29_AllocatorDestroyRangeReverseINS_9allocatorIN6seneca13CustomerOrderEEENS_16reverse_iteratorIPS4_EEEEEC2B8ue170006ES9_, symObjAddr: 0x7C90, symBinAddr: 0x10000E860, symSize: 0x30 }
  - { offsetInCU: 0x163BC, offset: 0x3C70F, size: 0x8, addend: 0x0, symName: __ZNSt3__129_AllocatorDestroyRangeReverseINS_9allocatorIN6seneca13CustomerOrderEEENS_16reverse_iteratorIPS3_EEEC2B8ue170006ERS4_RS7_SA_, symObjAddr: 0x7CC0, symBinAddr: 0x10000E890, symSize: 0x38 }
  - { offsetInCU: 0x16417, offset: 0x3C76A, size: 0x8, addend: 0x0, symName: __ZNSt3__119__to_address_helperINS_16reverse_iteratorIPN6seneca13CustomerOrderEEEvE6__callB8ue170006ERKS5_, symObjAddr: 0x7CF8, symBinAddr: 0x10000E8C8, symSize: 0x38 }
  - { offsetInCU: 0x1643A, offset: 0x3C78D, size: 0x8, addend: 0x0, symName: __ZNKSt3__116reverse_iteratorIPN6seneca13CustomerOrderEEptB8ue170006Ev, symObjAddr: 0x7D30, symBinAddr: 0x10000E900, symSize: 0x24 }
  - { offsetInCU: 0x1645F, offset: 0x3C7B2, size: 0x8, addend: 0x0, symName: __ZNSt3__128__exception_guard_exceptionsINS_29_AllocatorDestroyRangeReverseINS_9allocatorIN6seneca13CustomerOrderEEENS_16reverse_iteratorIPS4_EEEEED2B8ue170006Ev, symObjAddr: 0x7D54, symBinAddr: 0x10000E924, symSize: 0x50 }
  - { offsetInCU: 0x16487, offset: 0x3C7DA, size: 0x8, addend: 0x0, symName: __ZNKSt3__129_AllocatorDestroyRangeReverseINS_9allocatorIN6seneca13CustomerOrderEEENS_16reverse_iteratorIPS3_EEEclB8ue170006Ev, symObjAddr: 0x7DA4, symBinAddr: 0x10000E974, symSize: 0xB4 }
  - { offsetInCU: 0x164AD, offset: 0x3C800, size: 0x8, addend: 0x0, symName: __ZNSt3__116reverse_iteratorINS0_IPN6seneca13CustomerOrderEEEEC1B8ue170006ES4_, symObjAddr: 0x7EC8, symBinAddr: 0x10000EA98, symSize: 0x3C }
  - { offsetInCU: 0x164E3, offset: 0x3C836, size: 0x8, addend: 0x0, symName: __ZNSt3__116reverse_iteratorINS0_IPN6seneca13CustomerOrderEEEEppB8ue170006Ev, symObjAddr: 0x7F88, symBinAddr: 0x10000EB58, symSize: 0x30 }
  - { offsetInCU: 0x16508, offset: 0x3C85B, size: 0x8, addend: 0x0, symName: __ZNKSt3__116reverse_iteratorINS0_IPN6seneca13CustomerOrderEEEE4baseB8ue170006Ev, symObjAddr: 0x7FB8, symBinAddr: 0x10000EB88, symSize: 0x24 }
  - { offsetInCU: 0x16532, offset: 0x3C885, size: 0x8, addend: 0x0, symName: __ZNSt3__119__to_address_helperINS_16reverse_iteratorINS1_IPN6seneca13CustomerOrderEEEEEvE6__callB8ue170006ERKS6_, symObjAddr: 0x7FDC, symBinAddr: 0x10000EBAC, symSize: 0x38 }
  - { offsetInCU: 0x16555, offset: 0x3C8A8, size: 0x8, addend: 0x0, symName: __ZNKSt3__116reverse_iteratorINS0_IPN6seneca13CustomerOrderEEEEptB8ue170006Ev, symObjAddr: 0x8014, symBinAddr: 0x10000EBE4, symSize: 0x24 }
  - { offsetInCU: 0x1657A, offset: 0x3C8CD, size: 0x8, addend: 0x0, symName: __ZNKSt3__116reverse_iteratorINS0_IPN6seneca13CustomerOrderEEEEdeB8ue170006Ev, symObjAddr: 0x8038, symBinAddr: 0x10000EC08, symSize: 0x34 }
  - { offsetInCU: 0x165AD, offset: 0x3C900, size: 0x8, addend: 0x0, symName: __ZNSt3__116reverse_iteratorIPN6seneca13CustomerOrderEEmmB8ue170006Ev, symObjAddr: 0x806C, symBinAddr: 0x10000EC3C, symSize: 0x20 }
  - { offsetInCU: 0x165D2, offset: 0x3C925, size: 0x8, addend: 0x0, symName: __ZNSt3__116reverse_iteratorINS0_IPN6seneca13CustomerOrderEEEEC2B8ue170006ES4_, symObjAddr: 0x808C, symBinAddr: 0x10000EC5C, symSize: 0x2C }
  - { offsetInCU: 0x16609, offset: 0x3C95C, size: 0x8, addend: 0x0, symName: __ZNSt3__116reverse_iteratorIPN6seneca13CustomerOrderEEC2B8ue170006ES3_, symObjAddr: 0x80B8, symBinAddr: 0x10000EC88, symSize: 0x28 }
  - { offsetInCU: 0x16640, offset: 0x3C993, size: 0x8, addend: 0x0, symName: __ZNSt3__114__split_bufferIN6seneca13CustomerOrderERNS_9allocatorIS2_EEED2Ev, symObjAddr: 0x80E0, symBinAddr: 0x10000ECB0, symSize: 0x8C }
  - { offsetInCU: 0x1666B, offset: 0x3C9BE, size: 0x8, addend: 0x0, symName: __ZNSt3__114__split_bufferIN6seneca13CustomerOrderERNS_9allocatorIS2_EEE5clearB8ue170006Ev, symObjAddr: 0x816C, symBinAddr: 0x10000ED3C, symSize: 0x28 }
  - { offsetInCU: 0x16690, offset: 0x3C9E3, size: 0x8, addend: 0x0, symName: __ZNKSt3__114__split_bufferIN6seneca13CustomerOrderERNS_9allocatorIS2_EEE8capacityB8ue170006Ev, symObjAddr: 0x8194, symBinAddr: 0x10000ED64, symSize: 0x40 }
  - { offsetInCU: 0x166B5, offset: 0x3CA08, size: 0x8, addend: 0x0, symName: __ZNSt3__114__split_bufferIN6seneca13CustomerOrderERNS_9allocatorIS2_EEE17__destruct_at_endB8ue170006EPS2_, symObjAddr: 0x81D4, symBinAddr: 0x10000EDA4, symSize: 0x2C }
  - { offsetInCU: 0x166E8, offset: 0x3CA3B, size: 0x8, addend: 0x0, symName: __ZNSt3__114__split_bufferIN6seneca13CustomerOrderERNS_9allocatorIS2_EEE17__destruct_at_endB8ue170006EPS2_NS_17integral_constantIbLb0EEE, symObjAddr: 0x8200, symBinAddr: 0x10000EDD0, symSize: 0x80 }
  - { offsetInCU: 0x16728, offset: 0x3CA7B, size: 0x8, addend: 0x0, symName: __ZNKSt3__114__split_bufferIN6seneca13CustomerOrderERNS_9allocatorIS2_EEE9__end_capB8ue170006Ev, symObjAddr: 0x8280, symBinAddr: 0x10000EE50, symSize: 0x28 }
  - { offsetInCU: 0x1674D, offset: 0x3CAA0, size: 0x8, addend: 0x0, symName: __ZNKSt3__117__compressed_pairIPN6seneca13CustomerOrderERNS_9allocatorIS2_EEE5firstB8ue170006Ev, symObjAddr: 0x82A8, symBinAddr: 0x10000EE78, symSize: 0x24 }
  - { offsetInCU: 0x16772, offset: 0x3CAC5, size: 0x8, addend: 0x0, symName: __ZNSt3__16vectorIN6seneca13CustomerOrderENS_9allocatorIS2_EEE11__make_iterB8ue170006EPS2_, symObjAddr: 0x82CC, symBinAddr: 0x10000EE9C, symSize: 0x30 }
  - { offsetInCU: 0x167A6, offset: 0x3CAF9, size: 0x8, addend: 0x0, symName: __ZNSt3__111__wrap_iterIPN6seneca13CustomerOrderEEC1B8ue170006ES3_, symObjAddr: 0x82FC, symBinAddr: 0x10000EECC, symSize: 0x34 }
  - { offsetInCU: 0x167DC, offset: 0x3CB2F, size: 0x8, addend: 0x0, symName: __ZNSt3__111__wrap_iterIPN6seneca13CustomerOrderEEC2B8ue170006ES3_, symObjAddr: 0x8330, symBinAddr: 0x10000EF00, symSize: 0x20 }
  - { offsetInCU: 0x16813, offset: 0x3CB66, size: 0x8, addend: 0x0, symName: __ZNKSt3__15dequeIN6seneca13CustomerOrderENS_9allocatorIS2_EEE12__back_spareB8ue170006Ev, symObjAddr: 0x8350, symBinAddr: 0x10000EF20, symSize: 0x54 }
  - { offsetInCU: 0x16838, offset: 0x3CB8B, size: 0x8, addend: 0x0, symName: __ZNSt3__15dequeIN6seneca13CustomerOrderENS_9allocatorIS2_EEE19__add_back_capacityEv, symObjAddr: 0x83A4, symBinAddr: 0x10000EF74, symSize: 0x34C }
  - { offsetInCU: 0x168EC, offset: 0x3CC3F, size: 0x8, addend: 0x0, symName: __ZNKSt3__15dequeIN6seneca13CustomerOrderENS_9allocatorIS2_EEE24__annotate_increase_backB8ue170006Em, symObjAddr: 0x86F0, symBinAddr: 0x10000F2C0, symSize: 0x7C }
  - { offsetInCU: 0x16920, offset: 0x3CC73, size: 0x8, addend: 0x0, symName: __ZNKSt3__15dequeIN6seneca13CustomerOrderENS_9allocatorIS2_EEE10__capacityB8ue170006Ev, symObjAddr: 0x876C, symBinAddr: 0x10000F33C, symSize: 0x60 }
  - { offsetInCU: 0x16945, offset: 0x3CC98, size: 0x8, addend: 0x0, symName: __ZNKSt3__15dequeIN6seneca13CustomerOrderENS_9allocatorIS2_EEE13__front_spareB8ue170006Ev, symObjAddr: 0x87CC, symBinAddr: 0x10000F39C, symSize: 0x18 }
  - { offsetInCU: 0x1696A, offset: 0x3CCBD, size: 0x8, addend: 0x0, symName: __ZNSt3__114__split_bufferIPN6seneca13CustomerOrderENS_9allocatorIS3_EEE9push_backB8ue170006ERKS3_, symObjAddr: 0x87E4, symBinAddr: 0x10000F3B4, symSize: 0x260 }
  - { offsetInCU: 0x169E1, offset: 0x3CD34, size: 0x8, addend: 0x0, symName: __ZNKSt3__114__split_bufferIPN6seneca13CustomerOrderENS_9allocatorIS3_EEE12__back_spareB8ue170006Ev, symObjAddr: 0x8A44, symBinAddr: 0x10000F614, symSize: 0x40 }
  - { offsetInCU: 0x16A06, offset: 0x3CD59, size: 0x8, addend: 0x0, symName: __ZNSt3__114__split_bufferIPN6seneca13CustomerOrderENS_9allocatorIS3_EEE9push_backEOS3_, symObjAddr: 0x8A84, symBinAddr: 0x10000F654, symSize: 0x260 }
  - { offsetInCU: 0x16A7D, offset: 0x3CDD0, size: 0x8, addend: 0x0, symName: __ZNSt3__116allocator_traitsINS_9allocatorIN6seneca13CustomerOrderEEEE8allocateB8ue170006ERS4_m, symObjAddr: 0x8CE4, symBinAddr: 0x10000F8B4, symSize: 0x2C }
  - { offsetInCU: 0x16AB0, offset: 0x3CE03, size: 0x8, addend: 0x0, symName: __ZNSt3__114__split_bufferIPN6seneca13CustomerOrderENS_9allocatorIS3_EEE10push_frontEOS3_, symObjAddr: 0x8D10, symBinAddr: 0x10000F8E0, symSize: 0x25C }
  - { offsetInCU: 0x16B27, offset: 0x3CE7A, size: 0x8, addend: 0x0, symName: __ZNSt3__114__split_bufferIPN6seneca13CustomerOrderERNS_9allocatorIS3_EEEC1EmmS6_, symObjAddr: 0x8F6C, symBinAddr: 0x10000FB3C, symSize: 0x44 }
  - { offsetInCU: 0x16B81, offset: 0x3CED4, size: 0x8, addend: 0x0, symName: __ZNSt3__122__allocator_destructorINS_9allocatorIN6seneca13CustomerOrderEEEEC1B8ue170006ERS4_m, symObjAddr: 0x8FB0, symBinAddr: 0x10000FB80, symSize: 0x3C }
  - { offsetInCU: 0x16C2E, offset: 0x3CF81, size: 0x8, addend: 0x0, symName: __ZNSt3__110unique_ptrIPN6seneca13CustomerOrderENS_22__allocator_destructorINS_9allocatorIS2_EEEEEC1B8ue170006ILb1EvEES3_NS_16__dependent_typeINS_27__unique_ptr_deleter_sfinaeIS7_EEXT_EE20__good_rval_ref_typeE, symObjAddr: 0x8FEC, symBinAddr: 0x10000FBBC, symSize: 0x3C }
  - { offsetInCU: 0x16C7E, offset: 0x3CFD1, size: 0x8, addend: 0x0, symName: __ZNSt3__114__split_bufferIPN6seneca13CustomerOrderERNS_9allocatorIS3_EEE9push_backEOS3_, symObjAddr: 0x9028, symBinAddr: 0x10000FBF8, symSize: 0x260 }
  - { offsetInCU: 0x16CF5, offset: 0x3D048, size: 0x8, addend: 0x0, symName: __ZNKSt3__110unique_ptrIPN6seneca13CustomerOrderENS_22__allocator_destructorINS_9allocatorIS2_EEEEE3getB8ue170006Ev, symObjAddr: 0x9288, symBinAddr: 0x10000FE58, symSize: 0x28 }
  - { offsetInCU: 0x16D1A, offset: 0x3D06D, size: 0x8, addend: 0x0, symName: __ZNSt3__110unique_ptrIPN6seneca13CustomerOrderENS_22__allocator_destructorINS_9allocatorIS2_EEEEE7releaseB8ue170006Ev, symObjAddr: 0x92B0, symBinAddr: 0x10000FE80, symSize: 0x44 }
  - { offsetInCU: 0x16D4E, offset: 0x3D0A1, size: 0x8, addend: 0x0, symName: __ZNSt3__114__split_bufferIPN6seneca13CustomerOrderERNS_9allocatorIS3_EEE10push_frontERKS3_, symObjAddr: 0x92F4, symBinAddr: 0x10000FEC4, symSize: 0x25C }
  - { offsetInCU: 0x16DC5, offset: 0x3D118, size: 0x8, addend: 0x0, symName: __ZNSt3__114__split_bufferIPN6seneca13CustomerOrderENS_9allocatorIS3_EEE9__end_capB8ue170006Ev, symObjAddr: 0x958C, symBinAddr: 0x10001015C, symSize: 0x28 }
  - { offsetInCU: 0x16DEA, offset: 0x3D13D, size: 0x8, addend: 0x0, symName: __ZNSt3__114__split_bufferIPN6seneca13CustomerOrderERNS_9allocatorIS3_EEE9__end_capB8ue170006Ev, symObjAddr: 0x95B4, symBinAddr: 0x100010184, symSize: 0x28 }
  - { offsetInCU: 0x16E0F, offset: 0x3D162, size: 0x8, addend: 0x0, symName: __ZNSt3__110unique_ptrIPN6seneca13CustomerOrderENS_22__allocator_destructorINS_9allocatorIS2_EEEEED1B8ue170006Ev, symObjAddr: 0x95DC, symBinAddr: 0x1000101AC, symSize: 0x2C }
  - { offsetInCU: 0x16E37, offset: 0x3D18A, size: 0x8, addend: 0x0, symName: __ZNSt3__114__split_bufferIPN6seneca13CustomerOrderERNS_9allocatorIS3_EEED1Ev, symObjAddr: 0x9608, symBinAddr: 0x1000101D8, symSize: 0x2C }
  - { offsetInCU: 0x16E62, offset: 0x3D1B5, size: 0x8, addend: 0x0, symName: __ZNSt3__114__split_bufferIPN6seneca13CustomerOrderERNS_9allocatorIS3_EEE18__construct_at_endINS_13move_iteratorIPS3_EEEENS_9enable_ifIXsr31__has_forward_iterator_categoryIT_EE5valueEvE4typeESD_SD_, symObjAddr: 0x9674, symBinAddr: 0x100010244, symSize: 0x60 }
  - { offsetInCU: 0x16EAE, offset: 0x3D201, size: 0x8, addend: 0x0, symName: __ZNSt3__113move_iteratorIPPN6seneca13CustomerOrderEEC1B8ue170006ES4_, symObjAddr: 0x96D4, symBinAddr: 0x1000102A4, symSize: 0x34 }
  - { offsetInCU: 0x16EE4, offset: 0x3D237, size: 0x8, addend: 0x0, symName: __ZNSt3__116allocator_traitsINS_9allocatorIPN6seneca13CustomerOrderEEEE9constructB8ue170006IS4_JRKS4_EvEEvRS5_PT_DpOT0_, symObjAddr: 0x9708, symBinAddr: 0x1000102D8, symSize: 0x34 }
  - { offsetInCU: 0x16F5F, offset: 0x3D2B2, size: 0x8, addend: 0x0, symName: __ZNKSt3__114__move_trivialclB8ue170006IPN6seneca13CustomerOrderES4_Li0EEENS_4pairIPT_PT0_EES7_S7_S9_, symObjAddr: 0x98D8, symBinAddr: 0x1000104A8, symSize: 0x48 }
  - { offsetInCU: 0x16FCC, offset: 0x3D31F, size: 0x8, addend: 0x0, symName: __ZNSt3__14pairIPPN6seneca13CustomerOrderES4_EC1B8ue170006IRS4_S4_LPv0EEEOT_OT0_, symObjAddr: 0x9B00, symBinAddr: 0x1000106D0, symSize: 0x3C }
  - { offsetInCU: 0x17029, offset: 0x3D37C, size: 0x8, addend: 0x0, symName: __ZNSt3__14pairIPPN6seneca13CustomerOrderES4_EC2B8ue170006IRS4_S4_LPv0EEEOT_OT0_, symObjAddr: 0x9B3C, symBinAddr: 0x10001070C, symSize: 0x34 }
  - { offsetInCU: 0x17087, offset: 0x3D3DA, size: 0x8, addend: 0x0, symName: __ZNSt3__118__unwrap_iter_implIPPN6seneca13CustomerOrderELb1EE8__unwrapB8ue170006ES4_, symObjAddr: 0x9B70, symBinAddr: 0x100010740, symSize: 0x24 }
  - { offsetInCU: 0x170AA, offset: 0x3D3FD, size: 0x8, addend: 0x0, symName: __ZNSt3__14pairIPPN6seneca13CustomerOrderES4_EC1B8ue170006IS4_S4_LPv0EEEOT_OT0_, symObjAddr: 0x9B94, symBinAddr: 0x100010764, symSize: 0x3C }
  - { offsetInCU: 0x17107, offset: 0x3D45A, size: 0x8, addend: 0x0, symName: __ZNSt3__14pairIPPN6seneca13CustomerOrderES4_EC2B8ue170006IS4_S4_LPv0EEEOT_OT0_, symObjAddr: 0x9BD0, symBinAddr: 0x1000107A0, symSize: 0x34 }
  - { offsetInCU: 0x17165, offset: 0x3D4B8, size: 0x8, addend: 0x0, symName: __ZNSt3__118__unwrap_iter_implIPPN6seneca13CustomerOrderELb1EE8__rewrapB8ue170006ES4_S4_, symObjAddr: 0x9C04, symBinAddr: 0x1000107D4, symSize: 0x50 }
  - { offsetInCU: 0x17196, offset: 0x3D4E9, size: 0x8, addend: 0x0, symName: __ZNSt3__114__split_bufferIPN6seneca13CustomerOrderERNS_9allocatorIS3_EEE28__construct_at_end_with_sizeINS_13move_iteratorIPS3_EEEEvT_m, symObjAddr: 0x9C54, symBinAddr: 0x100010824, symSize: 0xDC }
  - { offsetInCU: 0x171FB, offset: 0x3D54E, size: 0x8, addend: 0x0, symName: __ZNSt3__114__split_bufferIPN6seneca13CustomerOrderERNS_9allocatorIS3_EEE21_ConstructTransactionC1B8ue170006EPPS3_m, symObjAddr: 0x9D6C, symBinAddr: 0x10001093C, symSize: 0x3C }
  - { offsetInCU: 0x1723F, offset: 0x3D592, size: 0x8, addend: 0x0, symName: __ZNSt3__116allocator_traitsINS_9allocatorIPN6seneca13CustomerOrderEEEE9constructB8ue170006IS4_JS4_EvEEvRS5_PT_DpOT0_, symObjAddr: 0x9DA8, symBinAddr: 0x100010978, symSize: 0x34 }
  - { offsetInCU: 0x17297, offset: 0x3D5EA, size: 0x8, addend: 0x0, symName: __ZNSt3__114__split_bufferIPN6seneca13CustomerOrderERNS_9allocatorIS3_EEE7__allocB8ue170006Ev, symObjAddr: 0x9DDC, symBinAddr: 0x1000109AC, symSize: 0x28 }
  - { offsetInCU: 0x172BC, offset: 0x3D60F, size: 0x8, addend: 0x0, symName: __ZNKSt3__113move_iteratorIPPN6seneca13CustomerOrderEEdeB8ue170006Ev, symObjAddr: 0x9E04, symBinAddr: 0x1000109D4, symSize: 0x18 }
  - { offsetInCU: 0x172E1, offset: 0x3D634, size: 0x8, addend: 0x0, symName: __ZNSt3__113move_iteratorIPPN6seneca13CustomerOrderEEppB8ue170006Ev, symObjAddr: 0x9E1C, symBinAddr: 0x1000109EC, symSize: 0x20 }
  - { offsetInCU: 0x17306, offset: 0x3D659, size: 0x8, addend: 0x0, symName: __ZNSt3__114__split_bufferIPN6seneca13CustomerOrderERNS_9allocatorIS3_EEE21_ConstructTransactionD1B8ue170006Ev, symObjAddr: 0x9E3C, symBinAddr: 0x100010A0C, symSize: 0x2C }
  - { offsetInCU: 0x1732E, offset: 0x3D681, size: 0x8, addend: 0x0, symName: __ZNSt3__114__split_bufferIPN6seneca13CustomerOrderERNS_9allocatorIS3_EEE21_ConstructTransactionC2B8ue170006EPPS3_m, symObjAddr: 0x9E68, symBinAddr: 0x100010A38, symSize: 0x44 }
  - { offsetInCU: 0x17373, offset: 0x3D6C6, size: 0x8, addend: 0x0, symName: __ZNSt3__19allocatorIPN6seneca13CustomerOrderEE9constructB8ue170006IS3_JS3_EEEvPT_DpOT0_, symObjAddr: 0x9EAC, symBinAddr: 0x100010A7C, symSize: 0x28 }
  - { offsetInCU: 0x173C8, offset: 0x3D71B, size: 0x8, addend: 0x0, symName: __ZNSt3__117__compressed_pairIPPN6seneca13CustomerOrderERNS_9allocatorIS3_EEE6secondB8ue170006Ev, symObjAddr: 0x9ED4, symBinAddr: 0x100010AA4, symSize: 0x28 }
  - { offsetInCU: 0x173ED, offset: 0x3D740, size: 0x8, addend: 0x0, symName: __ZNSt3__122__compressed_pair_elemIRNS_9allocatorIPN6seneca13CustomerOrderEEELi1ELb0EE5__getB8ue170006Ev, symObjAddr: 0x9EFC, symBinAddr: 0x100010ACC, symSize: 0x18 }
  - { offsetInCU: 0x17412, offset: 0x3D765, size: 0x8, addend: 0x0, symName: __ZNSt3__114__split_bufferIPN6seneca13CustomerOrderERNS_9allocatorIS3_EEE21_ConstructTransactionD2B8ue170006Ev, symObjAddr: 0x9F14, symBinAddr: 0x100010AE4, symSize: 0x20 }
  - { offsetInCU: 0x1743B, offset: 0x3D78E, size: 0x8, addend: 0x0, symName: __ZNKSt3__113move_iteratorIPPN6seneca13CustomerOrderEE4baseB8ue170006Ev, symObjAddr: 0x9FAC, symBinAddr: 0x100010B7C, symSize: 0x18 }
  - { offsetInCU: 0x17460, offset: 0x3D7B3, size: 0x8, addend: 0x0, symName: __ZNSt3__113move_iteratorIPPN6seneca13CustomerOrderEEC2B8ue170006ES4_, symObjAddr: 0x9FC4, symBinAddr: 0x100010B94, symSize: 0x20 }
  - { offsetInCU: 0x17497, offset: 0x3D7EA, size: 0x8, addend: 0x0, symName: __ZNSt3__19allocatorIPN6seneca13CustomerOrderEE9constructB8ue170006IS3_JRKS3_EEEvPT_DpOT0_, symObjAddr: 0x9FE4, symBinAddr: 0x100010BB4, symSize: 0x28 }
  - { offsetInCU: 0x174F6, offset: 0x3D849, size: 0x8, addend: 0x0, symName: __ZNKSt3__123__move_backward_trivialclB8ue170006IPN6seneca13CustomerOrderES4_Li0EEENS_4pairIPT_PT0_EES7_S7_S9_, symObjAddr: 0xA188, symBinAddr: 0x100010D58, symSize: 0x48 }
  - { offsetInCU: 0x1755E, offset: 0x3D8B1, size: 0x8, addend: 0x0, symName: __ZNSt3__14pairIPPN6seneca13CustomerOrderES4_EC1B8ue170006IRS4_S7_LPv0EEEOT_OT0_, symObjAddr: 0xA298, symBinAddr: 0x100010E68, symSize: 0x3C }
  - { offsetInCU: 0x175BB, offset: 0x3D90E, size: 0x8, addend: 0x0, symName: __ZNSt3__14pairIPPN6seneca13CustomerOrderES4_EC2B8ue170006IRS4_S7_LPv0EEEOT_OT0_, symObjAddr: 0xA2D4, symBinAddr: 0x100010EA4, symSize: 0x34 }
  - { offsetInCU: 0x17619, offset: 0x3D96C, size: 0x8, addend: 0x0, symName: __ZNSt3__114__split_bufferIPN6seneca13CustomerOrderERNS_9allocatorIS3_EEEC2EmmS6_, symObjAddr: 0xA308, symBinAddr: 0x100010ED8, symSize: 0xD4 }
  - { offsetInCU: 0x1768B, offset: 0x3D9DE, size: 0x8, addend: 0x0, symName: __ZNSt3__117__compressed_pairIPPN6seneca13CustomerOrderERNS_9allocatorIS3_EEEC1B8ue170006IDnS7_EEOT_OT0_, symObjAddr: 0xA3DC, symBinAddr: 0x100010FAC, symSize: 0x3C }
  - { offsetInCU: 0x176E1, offset: 0x3DA34, size: 0x8, addend: 0x0, symName: __ZNSt3__117__compressed_pairIPPN6seneca13CustomerOrderERNS_9allocatorIS3_EEEC2B8ue170006IDnS7_EEOT_OT0_, symObjAddr: 0xA458, symBinAddr: 0x100011028, symSize: 0x48 }
  - { offsetInCU: 0x17737, offset: 0x3DA8A, size: 0x8, addend: 0x0, symName: __ZNSt3__122__compressed_pair_elemIRNS_9allocatorIPN6seneca13CustomerOrderEEELi1ELb0EEC2B8ue170006IS6_vEEOT_, symObjAddr: 0xA4A0, symBinAddr: 0x100011070, symSize: 0x20 }
  - { offsetInCU: 0x17779, offset: 0x3DACC, size: 0x8, addend: 0x0, symName: __ZNSt3__19allocatorIPN6seneca13CustomerOrderEE8allocateB8ue170006Em, symObjAddr: 0xA4C0, symBinAddr: 0x100011090, symSize: 0x58 }
  - { offsetInCU: 0x177B6, offset: 0x3DB09, size: 0x8, addend: 0x0, symName: __ZNSt3__116allocator_traitsINS_9allocatorIPN6seneca13CustomerOrderEEEE8max_sizeB8ue170006IS5_vEEmRKS5_, symObjAddr: 0xA518, symBinAddr: 0x1000110E8, symSize: 0x24 }
  - { offsetInCU: 0x177E5, offset: 0x3DB38, size: 0x8, addend: 0x0, symName: __ZNKSt3__19allocatorIPN6seneca13CustomerOrderEE8max_sizeB8ue170006Ev, symObjAddr: 0xA53C, symBinAddr: 0x10001110C, symSize: 0x14 }
  - { offsetInCU: 0x1780A, offset: 0x3DB5D, size: 0x8, addend: 0x0, symName: __ZNSt3__122__allocator_destructorINS_9allocatorIN6seneca13CustomerOrderEEEEC2B8ue170006ERS4_m, symObjAddr: 0xA550, symBinAddr: 0x100011120, symSize: 0x2C }
  - { offsetInCU: 0x1784F, offset: 0x3DBA2, size: 0x8, addend: 0x0, symName: __ZNSt3__110unique_ptrIPN6seneca13CustomerOrderENS_22__allocator_destructorINS_9allocatorIS2_EEEEEC2B8ue170006ILb1EvEES3_NS_16__dependent_typeINS_27__unique_ptr_deleter_sfinaeIS7_EEXT_EE20__good_rval_ref_typeE, symObjAddr: 0xA57C, symBinAddr: 0x10001114C, symSize: 0x48 }
  - { offsetInCU: 0x1789F, offset: 0x3DBF2, size: 0x8, addend: 0x0, symName: __ZNSt3__117__compressed_pairIPN6seneca13CustomerOrderENS_22__allocator_destructorINS_9allocatorIS2_EEEEEC1B8ue170006IRS3_S7_EEOT_OT0_, symObjAddr: 0xA5C4, symBinAddr: 0x100011194, symSize: 0x3C }
  - { offsetInCU: 0x178F5, offset: 0x3DC48, size: 0x8, addend: 0x0, symName: __ZNSt3__117__compressed_pairIPN6seneca13CustomerOrderENS_22__allocator_destructorINS_9allocatorIS2_EEEEEC2B8ue170006IRS3_S7_EEOT_OT0_, symObjAddr: 0xA600, symBinAddr: 0x1000111D0, symSize: 0x48 }
  - { offsetInCU: 0x1794B, offset: 0x3DC9E, size: 0x8, addend: 0x0, symName: __ZNSt3__122__compressed_pair_elemIPN6seneca13CustomerOrderELi0ELb0EEC2B8ue170006IRS3_vEEOT_, symObjAddr: 0xA648, symBinAddr: 0x100011218, symSize: 0x24 }
  - { offsetInCU: 0x1798D, offset: 0x3DCE0, size: 0x8, addend: 0x0, symName: __ZNSt3__122__compressed_pair_elemINS_22__allocator_destructorINS_9allocatorIN6seneca13CustomerOrderEEEEELi1ELb0EEC2B8ue170006IS6_vEEOT_, symObjAddr: 0xA66C, symBinAddr: 0x10001123C, symSize: 0x24 }
  - { offsetInCU: 0x179CF, offset: 0x3DD22, size: 0x8, addend: 0x0, symName: __ZNKSt3__117__compressed_pairIPN6seneca13CustomerOrderENS_22__allocator_destructorINS_9allocatorIS2_EEEEE5firstB8ue170006Ev, symObjAddr: 0xA690, symBinAddr: 0x100011260, symSize: 0x24 }
  - { offsetInCU: 0x179F4, offset: 0x3DD47, size: 0x8, addend: 0x0, symName: __ZNSt3__117__compressed_pairIPN6seneca13CustomerOrderENS_22__allocator_destructorINS_9allocatorIS2_EEEEE5firstB8ue170006Ev, symObjAddr: 0xA6B4, symBinAddr: 0x100011284, symSize: 0x24 }
  - { offsetInCU: 0x17A19, offset: 0x3DD6C, size: 0x8, addend: 0x0, symName: __ZNSt3__117__compressed_pairIPPN6seneca13CustomerOrderENS_9allocatorIS3_EEE5firstB8ue170006Ev, symObjAddr: 0xA6D8, symBinAddr: 0x1000112A8, symSize: 0x24 }
  - { offsetInCU: 0x17A3E, offset: 0x3DD91, size: 0x8, addend: 0x0, symName: __ZNSt3__122__compressed_pair_elemIPPN6seneca13CustomerOrderELi0ELb0EE5__getB8ue170006Ev, symObjAddr: 0xA6FC, symBinAddr: 0x1000112CC, symSize: 0x14 }
  - { offsetInCU: 0x17A63, offset: 0x3DDB6, size: 0x8, addend: 0x0, symName: __ZNSt3__117__compressed_pairIPPN6seneca13CustomerOrderERNS_9allocatorIS3_EEE5firstB8ue170006Ev, symObjAddr: 0xA710, symBinAddr: 0x1000112E0, symSize: 0x24 }
  - { offsetInCU: 0x17A88, offset: 0x3DDDB, size: 0x8, addend: 0x0, symName: __ZNSt3__110unique_ptrIPN6seneca13CustomerOrderENS_22__allocator_destructorINS_9allocatorIS2_EEEEED2B8ue170006Ev, symObjAddr: 0xA734, symBinAddr: 0x100011304, symSize: 0x30 }
  - { offsetInCU: 0x17AB0, offset: 0x3DE03, size: 0x8, addend: 0x0, symName: __ZNSt3__110unique_ptrIPN6seneca13CustomerOrderENS_22__allocator_destructorINS_9allocatorIS2_EEEEE5resetB8ue170006ES3_, symObjAddr: 0xA764, symBinAddr: 0x100011334, symSize: 0x78 }
  - { offsetInCU: 0x17AF3, offset: 0x3DE46, size: 0x8, addend: 0x0, symName: __ZNSt3__117__compressed_pairIPN6seneca13CustomerOrderENS_22__allocator_destructorINS_9allocatorIS2_EEEEE6secondB8ue170006Ev, symObjAddr: 0xA7DC, symBinAddr: 0x1000113AC, symSize: 0x28 }
  - { offsetInCU: 0x17B18, offset: 0x3DE6B, size: 0x8, addend: 0x0, symName: __ZNSt3__122__allocator_destructorINS_9allocatorIN6seneca13CustomerOrderEEEEclB8ue170006EPS3_, symObjAddr: 0xA804, symBinAddr: 0x1000113D4, symSize: 0x34 }
  - { offsetInCU: 0x17B4B, offset: 0x3DE9E, size: 0x8, addend: 0x0, symName: __ZNSt3__122__compressed_pair_elemINS_22__allocator_destructorINS_9allocatorIN6seneca13CustomerOrderEEEEELi1ELb0EE5__getB8ue170006Ev, symObjAddr: 0xA838, symBinAddr: 0x100011408, symSize: 0x14 }
  - { offsetInCU: 0x17B70, offset: 0x3DEC3, size: 0x8, addend: 0x0, symName: __ZNSt3__114__split_bufferIPN6seneca13CustomerOrderERNS_9allocatorIS3_EEED2Ev, symObjAddr: 0xA84C, symBinAddr: 0x10001141C, symSize: 0x8C }
  - { offsetInCU: 0x17B9B, offset: 0x3DEEE, size: 0x8, addend: 0x0, symName: __ZNSt3__114__split_bufferIPN6seneca13CustomerOrderERNS_9allocatorIS3_EEE5clearB8ue170006Ev, symObjAddr: 0xA8D8, symBinAddr: 0x1000114A8, symSize: 0x28 }
  - { offsetInCU: 0x17BC0, offset: 0x3DF13, size: 0x8, addend: 0x0, symName: __ZNKSt3__114__split_bufferIPN6seneca13CustomerOrderERNS_9allocatorIS3_EEE8capacityB8ue170006Ev, symObjAddr: 0xA900, symBinAddr: 0x1000114D0, symSize: 0x40 }
  - { offsetInCU: 0x17BE5, offset: 0x3DF38, size: 0x8, addend: 0x0, symName: __ZNSt3__114__split_bufferIPN6seneca13CustomerOrderERNS_9allocatorIS3_EEE17__destruct_at_endB8ue170006EPS3_, symObjAddr: 0xA940, symBinAddr: 0x100011510, symSize: 0x2C }
  - { offsetInCU: 0x17C18, offset: 0x3DF6B, size: 0x8, addend: 0x0, symName: __ZNSt3__114__split_bufferIPN6seneca13CustomerOrderERNS_9allocatorIS3_EEE17__destruct_at_endB8ue170006EPS3_NS_17integral_constantIbLb0EEE, symObjAddr: 0xA96C, symBinAddr: 0x10001153C, symSize: 0x80 }
  - { offsetInCU: 0x17C58, offset: 0x3DFAB, size: 0x8, addend: 0x0, symName: __ZNKSt3__114__split_bufferIPN6seneca13CustomerOrderERNS_9allocatorIS3_EEE9__end_capB8ue170006Ev, symObjAddr: 0xA9EC, symBinAddr: 0x1000115BC, symSize: 0x28 }
  - { offsetInCU: 0x17C7D, offset: 0x3DFD0, size: 0x8, addend: 0x0, symName: __ZNKSt3__117__compressed_pairIPPN6seneca13CustomerOrderERNS_9allocatorIS3_EEE5firstB8ue170006Ev, symObjAddr: 0xAA14, symBinAddr: 0x1000115E4, symSize: 0x24 }
  - { offsetInCU: 0x17CA2, offset: 0x3DFF5, size: 0x8, addend: 0x0, symName: __ZNSt3__112basic_stringIcNS_11char_traitsIcEENS_9allocatorIcEEEC2B8ue170006ILi0EEEPKc, symObjAddr: 0xAA38, symBinAddr: 0x100011608, symSize: 0x58 }
  - { offsetInCU: 0x17CE0, offset: 0x3E033, size: 0x8, addend: 0x0, symName: __ZNKSt3__114__split_bufferIPN6seneca13CustomerOrderENS_9allocatorIS3_EEE5emptyB8ue170006Ev, symObjAddr: 0xAA90, symBinAddr: 0x100011660, symSize: 0x28 }
  - { offsetInCU: 0x17D05, offset: 0x3E058, size: 0x8, addend: 0x0, symName: __ZNSt3__116__deque_iteratorIN6seneca13CustomerOrderEPS2_RS2_PS3_lLl64EEC1B8ue170006ES5_S3_, symObjAddr: 0xAAB8, symBinAddr: 0x100011688, symSize: 0x3C }
  - { offsetInCU: 0x17D4B, offset: 0x3E09E, size: 0x8, addend: 0x0, symName: __ZNSt3__116__deque_iteratorIN6seneca13CustomerOrderEPS2_RS2_PS3_lLl64EEC2B8ue170006ES5_S3_, symObjAddr: 0xAAF4, symBinAddr: 0x1000116C4, symSize: 0x2C }
  - { offsetInCU: 0x3E, offset: 0x3E253, size: 0x8, addend: 0x0, symName: __ZN6seneca9Utilities11m_delimiterE, symObjAddr: 0x12628, symBinAddr: 0x100018018, symSize: 0x0 }
  - { offsetInCU: 0x10C, offset: 0x3E321, size: 0x8, addend: 0x0, symName: __ZN6seneca9Utilities6objectE, symObjAddr: 0x12630, symBinAddr: 0x100018020, symSize: 0x0 }
  - { offsetInCU: 0x2B23, offset: 0x40D38, size: 0x8, addend: 0x0, symName: __ZNSt3__123__str_find_first_not_ofB8ue170006IcmNS_11char_traitsIcEELm18446744073709551615EEET0_PKT_S3_S4_S3_, symObjAddr: 0x84C, symBinAddr: 0x100011C74, symSize: 0xD0 }
  - { offsetInCU: 0x2BE6, offset: 0x40DFB, size: 0x8, addend: 0x0, symName: __ZNSt3__122__str_find_last_not_ofB8ue170006IcmNS_11char_traitsIcEELm18446744073709551615EEET0_PKT_S3_S4_S3_, symObjAddr: 0xAA8, symBinAddr: 0x100011D44, symSize: 0xD0 }
  - { offsetInCU: 0x4B30, offset: 0x42D45, size: 0x8, addend: 0x0, symName: __ZN6seneca9Utilities4trimERKNSt3__112basic_stringIcNS1_11char_traitsIcEENS1_9allocatorIcEEEE, symObjAddr: 0x2C, symBinAddr: 0x100011720, symSize: 0x10C }
  - { offsetInCU: 0x4B90, offset: 0x42DA5, size: 0x8, addend: 0x0, symName: __ZNKSt3__112basic_stringIcNS_11char_traitsIcEENS_9allocatorIcEEE17find_first_not_ofB8ue170006Ecm, symObjAddr: 0x138, symBinAddr: 0x10001182C, symSize: 0x54 }
  - { offsetInCU: 0x4BD5, offset: 0x42DEA, size: 0x8, addend: 0x0, symName: __ZNKSt3__112basic_stringIcNS_11char_traitsIcEENS_9allocatorIcEEE16find_last_not_ofB8ue170006Ecm, symObjAddr: 0x18C, symBinAddr: 0x100011880, symSize: 0x54 }
  - { offsetInCU: 0x4C1A, offset: 0x42E2F, size: 0x8, addend: 0x0, symName: __ZN6seneca9Utilities12extractTokenERKNSt3__112basic_stringIcNS1_11char_traitsIcEENS1_9allocatorIcEEEERmRb, symObjAddr: 0x1E0, symBinAddr: 0x1000118D4, symSize: 0x23C }
  - { offsetInCU: 0x4C88, offset: 0x42E9D, size: 0x8, addend: 0x0, symName: __ZNKSt3__112basic_stringIcNS_11char_traitsIcEENS_9allocatorIcEEE6lengthB8ue170006Ev, symObjAddr: 0x41C, symBinAddr: 0x100011B10, symSize: 0x24 }
  - { offsetInCU: 0x4CAD, offset: 0x42EC2, size: 0x8, addend: 0x0, symName: __ZNSt12out_of_rangeC1B8ue170006EPKc, symObjAddr: 0x494, symBinAddr: 0x100011B34, symSize: 0x34 }
  - { offsetInCU: 0x4CE3, offset: 0x42EF8, size: 0x8, addend: 0x0, symName: __ZNKSt3__112basic_stringIcNS_11char_traitsIcEENS_9allocatorIcEEE6substrB8ue170006Emm, symObjAddr: 0x4C8, symBinAddr: 0x100011B68, symSize: 0x68 }
  - { offsetInCU: 0x4D26, offset: 0x42F3B, size: 0x8, addend: 0x0, symName: __ZNKSt3__112basic_stringIcNS_11char_traitsIcEENS_9allocatorIcEEE5emptyB8ue170006Ev, symObjAddr: 0x530, symBinAddr: 0x100011BD0, symSize: 0x30 }
  - { offsetInCU: 0x4D4B, offset: 0x42F60, size: 0x8, addend: 0x0, symName: __ZN6seneca9Utilities12setDelimiterEc, symObjAddr: 0x58C, symBinAddr: 0x100011C00, symSize: 0x1C }
  - { offsetInCU: 0x4D70, offset: 0x42F85, size: 0x8, addend: 0x0, symName: __ZN6seneca9Utilities12getDelimiterEv, symObjAddr: 0x5A8, symBinAddr: 0x100011C1C, symSize: 0xC }
  - { offsetInCU: 0x4D86, offset: 0x42F9B, size: 0x8, addend: 0x0, symName: __ZNSt12out_of_rangeC2B8ue170006EPKc, symObjAddr: 0x5B4, symBinAddr: 0x100011C28, symSize: 0x4C }
  - { offsetInCU: 0x4DBC, offset: 0x42FD1, size: 0x8, addend: 0x0, symName: __ZNSt3__19allocatorIcEC1B8ue170006Ev, symObjAddr: 0xBD4, symBinAddr: 0x100011E14, symSize: 0x2C }
  - { offsetInCU: 0x44, offset: 0x43051, size: 0x8, addend: 0x0, symName: __ZN6seneca9g_pendingE, symObjAddr: 0x36718, symBinAddr: 0x100018038, symSize: 0x0 }
  - { offsetInCU: 0x2B1, offset: 0x432BE, size: 0x8, addend: 0x0, symName: __ZN6seneca11g_completedE, symObjAddr: 0x36748, symBinAddr: 0x100018068, symSize: 0x0 }
  - { offsetInCU: 0x2CB, offset: 0x432D8, size: 0x8, addend: 0x0, symName: __ZN6seneca12g_incompleteE, symObjAddr: 0x36778, symBinAddr: 0x100018098, symSize: 0x0 }
  - { offsetInCU: 0x7B74, offset: 0x4AB81, size: 0x8, addend: 0x0, symName: __ZN6seneca11Workstation4fillERNSt3__113basic_ostreamIcNS1_11char_traitsIcEEEE, symObjAddr: 0x58, symBinAddr: 0x100011E94, symSize: 0x70 }
  - { offsetInCU: 0x7BA9, offset: 0x4ABB6, size: 0x8, addend: 0x0, symName: __ZNSt3__15dequeIN6seneca13CustomerOrderENS_9allocatorIS2_EEE5frontEv, symObjAddr: 0xC8, symBinAddr: 0x100011F04, symSize: 0x50 }
  - { offsetInCU: 0x7BD0, offset: 0x4ABDD, size: 0x8, addend: 0x0, symName: __ZN6seneca11Workstation18attemptToMoveOrderEv, symObjAddr: 0x130, symBinAddr: 0x100011F54, symSize: 0x124 }
  - { offsetInCU: 0x7C05, offset: 0x4AC12, size: 0x8, addend: 0x0, symName: __ZN6seneca11WorkstationpLEONS_13CustomerOrderE, symObjAddr: 0x26C, symBinAddr: 0x100012078, symSize: 0x38 }
  - { offsetInCU: 0x7C3A, offset: 0x4AC47, size: 0x8, addend: 0x0, symName: __ZNK6seneca11Workstation7displayERNSt3__113basic_ostreamIcNS1_11char_traitsIcEEEE, symObjAddr: 0x350, symBinAddr: 0x1000120B0, symSize: 0x98 }
  - { offsetInCU: 0x7C6F, offset: 0x4AC7C, size: 0x8, addend: 0x0, symName: __ZNSt3__15dequeIN6seneca13CustomerOrderENS_9allocatorIS2_EEE9push_backERKS2_, symObjAddr: 0x500, symBinAddr: 0x100012148, symSize: 0xAC }
  - { offsetInCU: 0x7CE6, offset: 0x4ACF3, size: 0x8, addend: 0x0, symName: __ZNSt3__116allocator_traitsINS_9allocatorIN6seneca13CustomerOrderEEEE9constructB8ue170006IS3_JRKS3_EvEEvRS4_PT_DpOT0_, symObjAddr: 0x5424, symBinAddr: 0x1000121F4, symSize: 0x34 }
  - { offsetInCU: 0x7D3E, offset: 0x4AD4B, size: 0x8, addend: 0x0, symName: __ZNSt3__19allocatorIN6seneca13CustomerOrderEE9constructB8ue170006IS2_JRKS2_EEEvPT_DpOT0_, symObjAddr: 0x5458, symBinAddr: 0x100012228, symSize: 0x30 }
  - { offsetInCU: 0x7D93, offset: 0x4ADA0, size: 0x8, addend: 0x0, symName: __ZN6seneca13CustomerOrderC1ERKS0_, symObjAddr: 0x5488, symBinAddr: 0x100012258, symSize: 0x34 }
  - { offsetInCU: 0x7DC9, offset: 0x4ADD6, size: 0x8, addend: 0x0, symName: __ZN6seneca13CustomerOrderC2ERKS0_, symObjAddr: 0x54BC, symBinAddr: 0x10001228C, symSize: 0xC8 }
  - { offsetInCU: 0x7DFF, offset: 0x4AE0C, size: 0x8, addend: 0x0, symName: __ZNSt16invalid_argumentC1B8ue170006EPKc, symObjAddr: 0x55B0, symBinAddr: 0x100012354, symSize: 0x34 }
  - { offsetInCU: 0x7E35, offset: 0x4AE42, size: 0x8, addend: 0x0, symName: __ZNSt16invalid_argumentC2B8ue170006EPKc, symObjAddr: 0x566C, symBinAddr: 0x100012388, symSize: 0x4C }
...
